

Microchip MPLAB XC8 Assembler V2.46 build 20240104201356 
                                                                                               Sun Mar 31 00:43:18 2024

Microchip MPLAB XC8 C Compiler v2.46 (Free license) build 20240104201356 Og1 
     1                           	processor	16F877A
     2                           	pagewidth 120
     3                           	opt	flic
     4                           	psect	idataBANK0,global,class=CODE,delta=2,noexec
     5                           	psect	idataBANK1,global,class=CODE,delta=2,noexec
     6                           	psect	strings,global,class=STRING,delta=2,noexec
     7                           	psect	stringtext,global,reloc=256,class=STRCODE,delta=2,noexec
     8                           	psect	cinit,global,class=CODE,merge=1,delta=2
     9                           	psect	bssCOMMON,global,class=COMMON,space=1,delta=1,noexec
    10                           	psect	bssBANK0,global,class=BANK0,space=1,delta=1,noexec
    11                           	psect	dataBANK0,global,class=BANK0,space=1,delta=1,noexec
    12                           	psect	bssBANK1,global,class=BANK1,space=1,delta=1,noexec
    13                           	psect	dataBANK1,global,class=BANK1,space=1,delta=1,noexec
    14                           	psect	inittext,global,class=CODE,delta=2
    15                           	psect	cstackCOMMON,global,class=COMMON,space=1,delta=1,noexec
    16                           	psect	cstackBANK0,global,class=BANK0,space=1,delta=1,noexec
    17                           	psect	maintext,global,class=CODE,split=1,delta=2
    18                           	psect	text1,local,class=CODE,merge=1,delta=2
    19                           	psect	text2,local,class=CODE,merge=1,delta=2
    20                           	psect	text3,local,class=CODE,merge=1,delta=2
    21                           	psect	text4,local,class=CODE,merge=1,delta=2
    22                           	psect	text5,local,class=CODE,merge=1,delta=2
    23                           	psect	text6,local,class=CODE,merge=1,delta=2,group=1
    24                           	psect	text7,local,class=CODE,merge=1,delta=2,group=1
    25                           	psect	text8,local,class=CODE,merge=1,delta=2,group=1
    26                           	psect	text9,local,class=CODE,merge=1,delta=2,group=1
    27                           	psect	text10,local,class=CODE,merge=1,delta=2,group=1
    28                           	psect	text11,local,class=CODE,merge=1,delta=2,group=1
    29                           	psect	text12,local,class=CODE,merge=1,delta=2,group=1
    30                           	psect	text13,local,class=CODE,merge=1,delta=2,group=1
    31                           	psect	text14,local,class=CODE,merge=1,delta=2,group=1
    32                           	psect	text15,local,class=CODE,merge=1,delta=2,group=1
    33                           	psect	text16,local,class=CODE,merge=1,delta=2
    34                           	psect	text17,local,class=CODE,merge=1,delta=2
    35                           	psect	text18,local,class=CODE,merge=1,delta=2
    36                           	psect	text19,local,class=CODE,merge=1,delta=2
    37                           	psect	text20,local,class=CODE,merge=1,delta=2
    38                           	psect	text21,local,class=CODE,merge=1,delta=2
    39                           	psect	text22,local,class=CODE,merge=1,delta=2
    40                           	psect	text23,local,class=CODE,merge=1,delta=2
    41                           	psect	text24,local,class=CODE,merge=1,delta=2
    42                           	psect	text25,local,class=CODE,merge=1,delta=2
    43                           	psect	text26,local,class=CODE,merge=1,delta=2
    44                           	psect	text27,local,class=CODE,merge=1,delta=2
    45                           	psect	intentry,global,class=CODE,delta=2
    46                           	psect	config,global,abs,ovrld,class=CONFIG,space=4,delta=2,noexec
    47                           	dabs	1,0x7E,2
    48     0000                     
    49                           ; Version 2.20
    50                           ; Generated 12/02/2020 GMT
    51                           ; 
    52                           ; Copyright © 2020, Microchip Technology Inc. and its subsidiaries ("Microchip")
    53                           ; All rights reserved.
    54                           ; 
    55                           ; This software is developed by Microchip Technology Inc. and its subsidiaries ("Microch
      +                          ip").
    56                           ; 
    57                           ; Redistribution and use in source and binary forms, with or without modification, are
    58                           ; permitted provided that the following conditions are met:
    59                           ; 
    60                           ;     1. Redistributions of source code must retain the above copyright notice, this lis
      +                          t of
    61                           ;        conditions and the following disclaimer.
    62                           ; 
    63                           ;     2. Redistributions in binary form must reproduce the above copyright notice, this 
      +                          list
    64                           ;        of conditions and the following disclaimer in the documentation and/or other
    65                           ;        materials provided with the distribution.
    66                           ; 
    67                           ;     3. Microchip's name may not be used to endorse or promote products derived from th
      +                          is
    68                           ;        software without specific prior written permission.
    69                           ; 
    70                           ; THIS SOFTWARE IS PROVIDED BY MICROCHIP "AS IS" AND ANY EXPRESS OR IMPLIED WARRANTIES,
    71                           ; INCLUDING, BUT NOT LIMITED TO, THE IMPLIED WARRANTIES OF MERCHANTABILITY AND FITNESS F
      +                          OR
    72                           ; PURPOSE ARE DISCLAIMED.  IN NO EVENT SHALL MICROCHIP BE LIABLE FOR ANY DIRECT, INDIREC
      +                          T,
    73                           ; INCIDENTAL, SPECIAL, EXEMPLARY, OR CONSEQUENTIAL DAMAGES (INCLUDING BUT NOT LIMITED TO
    74                           ; PROCUREMENT OF SUBSTITUTE GOODS OR SERVICES; LOSS OF USE, DATA OR PROFITS; OR BUSINESS
    75                           ; INTERRUPTION) HOWSOEVER CAUSED AND ON ANY THEORY OF LIABILITY, WHETHER IN CONTRACT, ST
      +                          RICT
    76                           ; LIABILITY, OR TORT (INCLUDING NEGLIGENCE OR OTHERWISE) ARISING IN ANY WAY OUT OF THE U
      +                          SE OF
    77                           ; THIS SOFTWARE, EVEN IF ADVISED OF THE POSSIBILITY OF SUCH DAMAGE.
    78                           ; 
    79                           ; 
    80                           ; Code-generator required, PIC16F877A Definitions
    81                           ; 
    82                           ; SFR Addresses
    83     0000                     	;# 
    84     0001                     	;# 
    85     0002                     	;# 
    86     0003                     	;# 
    87     0004                     	;# 
    88     0005                     	;# 
    89     0006                     	;# 
    90     0007                     	;# 
    91     0008                     	;# 
    92     0009                     	;# 
    93     000A                     	;# 
    94     000B                     	;# 
    95     000C                     	;# 
    96     000D                     	;# 
    97     000E                     	;# 
    98     000E                     	;# 
    99     000F                     	;# 
   100     0010                     	;# 
   101     0011                     	;# 
   102     0012                     	;# 
   103     0013                     	;# 
   104     0014                     	;# 
   105     0015                     	;# 
   106     0015                     	;# 
   107     0016                     	;# 
   108     0017                     	;# 
   109     0018                     	;# 
   110     0019                     	;# 
   111     001A                     	;# 
   112     001B                     	;# 
   113     001B                     	;# 
   114     001C                     	;# 
   115     001D                     	;# 
   116     001E                     	;# 
   117     001F                     	;# 
   118     0081                     	;# 
   119     0085                     	;# 
   120     0086                     	;# 
   121     0087                     	;# 
   122     0088                     	;# 
   123     0089                     	;# 
   124     008C                     	;# 
   125     008D                     	;# 
   126     008E                     	;# 
   127     0091                     	;# 
   128     0092                     	;# 
   129     0093                     	;# 
   130     0094                     	;# 
   131     0098                     	;# 
   132     0099                     	;# 
   133     009C                     	;# 
   134     009D                     	;# 
   135     009E                     	;# 
   136     009F                     	;# 
   137     010C                     	;# 
   138     010D                     	;# 
   139     010E                     	;# 
   140     010F                     	;# 
   141     018C                     	;# 
   142     018D                     	;# 
   143     0000                     	;# 
   144     0001                     	;# 
   145     0002                     	;# 
   146     0003                     	;# 
   147     0004                     	;# 
   148     0005                     	;# 
   149     0006                     	;# 
   150     0007                     	;# 
   151     0008                     	;# 
   152     0009                     	;# 
   153     000A                     	;# 
   154     000B                     	;# 
   155     000C                     	;# 
   156     000D                     	;# 
   157     000E                     	;# 
   158     000E                     	;# 
   159     000F                     	;# 
   160     0010                     	;# 
   161     0011                     	;# 
   162     0012                     	;# 
   163     0013                     	;# 
   164     0014                     	;# 
   165     0015                     	;# 
   166     0015                     	;# 
   167     0016                     	;# 
   168     0017                     	;# 
   169     0018                     	;# 
   170     0019                     	;# 
   171     001A                     	;# 
   172     001B                     	;# 
   173     001B                     	;# 
   174     001C                     	;# 
   175     001D                     	;# 
   176     001E                     	;# 
   177     001F                     	;# 
   178     0081                     	;# 
   179     0085                     	;# 
   180     0086                     	;# 
   181     0087                     	;# 
   182     0088                     	;# 
   183     0089                     	;# 
   184     008C                     	;# 
   185     008D                     	;# 
   186     008E                     	;# 
   187     0091                     	;# 
   188     0092                     	;# 
   189     0093                     	;# 
   190     0094                     	;# 
   191     0098                     	;# 
   192     0099                     	;# 
   193     009C                     	;# 
   194     009D                     	;# 
   195     009E                     	;# 
   196     009F                     	;# 
   197     010C                     	;# 
   198     010D                     	;# 
   199     010E                     	;# 
   200     010F                     	;# 
   201     018C                     	;# 
   202     018D                     	;# 
   203     0000                     	;# 
   204     0001                     	;# 
   205     0002                     	;# 
   206     0003                     	;# 
   207     0004                     	;# 
   208     0005                     	;# 
   209     0006                     	;# 
   210     0007                     	;# 
   211     0008                     	;# 
   212     0009                     	;# 
   213     000A                     	;# 
   214     000B                     	;# 
   215     000C                     	;# 
   216     000D                     	;# 
   217     000E                     	;# 
   218     000E                     	;# 
   219     000F                     	;# 
   220     0010                     	;# 
   221     0011                     	;# 
   222     0012                     	;# 
   223     0013                     	;# 
   224     0014                     	;# 
   225     0015                     	;# 
   226     0015                     	;# 
   227     0016                     	;# 
   228     0017                     	;# 
   229     0018                     	;# 
   230     0019                     	;# 
   231     001A                     	;# 
   232     001B                     	;# 
   233     001B                     	;# 
   234     001C                     	;# 
   235     001D                     	;# 
   236     001E                     	;# 
   237     001F                     	;# 
   238     0081                     	;# 
   239     0085                     	;# 
   240     0086                     	;# 
   241     0087                     	;# 
   242     0088                     	;# 
   243     0089                     	;# 
   244     008C                     	;# 
   245     008D                     	;# 
   246     008E                     	;# 
   247     0091                     	;# 
   248     0092                     	;# 
   249     0093                     	;# 
   250     0094                     	;# 
   251     0098                     	;# 
   252     0099                     	;# 
   253     009C                     	;# 
   254     009D                     	;# 
   255     009E                     	;# 
   256     009F                     	;# 
   257     010C                     	;# 
   258     010D                     	;# 
   259     010E                     	;# 
   260     010F                     	;# 
   261     018C                     	;# 
   262     018D                     	;# 
   263     0000                     	;# 
   264     0001                     	;# 
   265     0002                     	;# 
   266     0003                     	;# 
   267     0004                     	;# 
   268     0005                     	;# 
   269     0006                     	;# 
   270     0007                     	;# 
   271     0008                     	;# 
   272     0009                     	;# 
   273     000A                     	;# 
   274     000B                     	;# 
   275     000C                     	;# 
   276     000D                     	;# 
   277     000E                     	;# 
   278     000E                     	;# 
   279     000F                     	;# 
   280     0010                     	;# 
   281     0011                     	;# 
   282     0012                     	;# 
   283     0013                     	;# 
   284     0014                     	;# 
   285     0015                     	;# 
   286     0015                     	;# 
   287     0016                     	;# 
   288     0017                     	;# 
   289     0018                     	;# 
   290     0019                     	;# 
   291     001A                     	;# 
   292     001B                     	;# 
   293     001B                     	;# 
   294     001C                     	;# 
   295     001D                     	;# 
   296     001E                     	;# 
   297     001F                     	;# 
   298     0081                     	;# 
   299     0085                     	;# 
   300     0086                     	;# 
   301     0087                     	;# 
   302     0088                     	;# 
   303     0089                     	;# 
   304     008C                     	;# 
   305     008D                     	;# 
   306     008E                     	;# 
   307     0091                     	;# 
   308     0092                     	;# 
   309     0093                     	;# 
   310     0094                     	;# 
   311     0098                     	;# 
   312     0099                     	;# 
   313     009C                     	;# 
   314     009D                     	;# 
   315     009E                     	;# 
   316     009F                     	;# 
   317     010C                     	;# 
   318     010D                     	;# 
   319     010E                     	;# 
   320     010F                     	;# 
   321     018C                     	;# 
   322     018D                     	;# 
   323     0000                     	;# 
   324     0001                     	;# 
   325     0002                     	;# 
   326     0003                     	;# 
   327     0004                     	;# 
   328     0005                     	;# 
   329     0006                     	;# 
   330     0007                     	;# 
   331     0008                     	;# 
   332     0009                     	;# 
   333     000A                     	;# 
   334     000B                     	;# 
   335     000C                     	;# 
   336     000D                     	;# 
   337     000E                     	;# 
   338     000E                     	;# 
   339     000F                     	;# 
   340     0010                     	;# 
   341     0011                     	;# 
   342     0012                     	;# 
   343     0013                     	;# 
   344     0014                     	;# 
   345     0015                     	;# 
   346     0015                     	;# 
   347     0016                     	;# 
   348     0017                     	;# 
   349     0018                     	;# 
   350     0019                     	;# 
   351     001A                     	;# 
   352     001B                     	;# 
   353     001B                     	;# 
   354     001C                     	;# 
   355     001D                     	;# 
   356     001E                     	;# 
   357     001F                     	;# 
   358     0081                     	;# 
   359     0085                     	;# 
   360     0086                     	;# 
   361     0087                     	;# 
   362     0088                     	;# 
   363     0089                     	;# 
   364     008C                     	;# 
   365     008D                     	;# 
   366     008E                     	;# 
   367     0091                     	;# 
   368     0092                     	;# 
   369     0093                     	;# 
   370     0094                     	;# 
   371     0098                     	;# 
   372     0099                     	;# 
   373     009C                     	;# 
   374     009D                     	;# 
   375     009E                     	;# 
   376     009F                     	;# 
   377     010C                     	;# 
   378     010D                     	;# 
   379     010E                     	;# 
   380     010F                     	;# 
   381     018C                     	;# 
   382     018D                     	;# 
   383     0000                     	;# 
   384     0001                     	;# 
   385     0002                     	;# 
   386     0003                     	;# 
   387     0004                     	;# 
   388     0005                     	;# 
   389     0006                     	;# 
   390     0007                     	;# 
   391     0008                     	;# 
   392     0009                     	;# 
   393     000A                     	;# 
   394     000B                     	;# 
   395     000C                     	;# 
   396     000D                     	;# 
   397     000E                     	;# 
   398     000E                     	;# 
   399     000F                     	;# 
   400     0010                     	;# 
   401     0011                     	;# 
   402     0012                     	;# 
   403     0013                     	;# 
   404     0014                     	;# 
   405     0015                     	;# 
   406     0015                     	;# 
   407     0016                     	;# 
   408     0017                     	;# 
   409     0018                     	;# 
   410     0019                     	;# 
   411     001A                     	;# 
   412     001B                     	;# 
   413     001B                     	;# 
   414     001C                     	;# 
   415     001D                     	;# 
   416     001E                     	;# 
   417     001F                     	;# 
   418     0081                     	;# 
   419     0085                     	;# 
   420     0086                     	;# 
   421     0087                     	;# 
   422     0088                     	;# 
   423     0089                     	;# 
   424     008C                     	;# 
   425     008D                     	;# 
   426     008E                     	;# 
   427     0091                     	;# 
   428     0092                     	;# 
   429     0093                     	;# 
   430     0094                     	;# 
   431     0098                     	;# 
   432     0099                     	;# 
   433     009C                     	;# 
   434     009D                     	;# 
   435     009E                     	;# 
   436     009F                     	;# 
   437     010C                     	;# 
   438     010D                     	;# 
   439     010E                     	;# 
   440     010F                     	;# 
   441     018C                     	;# 
   442     018D                     	;# 
   443                           
   444                           	psect	idataBANK0
   445     07FD                     __pidataBANK0:
   446                           
   447                           ;initializer for read_digital_keypad@once
   448     07FD  3401               	retlw	1
   449                           
   450                           ;initializer for _reset_mode
   451     07FE  3410               	retlw	16
   452                           
   453                           ;initializer for _operation_mode
   454     07FF  3401               	retlw	1
   455                           
   456                           	psect	idataBANK1
   457     1581                     __pidataBANK1:
   458                           
   459                           ;initializer for _washing_prog
   460     1581  345C               	retlw	low (STR_1| (0+32768))
   461     1582  3491               	retlw	high (STR_1| (0+32768))
   462     1583  3462               	retlw	low (STR_2| (0+32768))
   463     1584  3491               	retlw	high (STR_2| (0+32768))
   464     1585  34DD               	retlw	low (STR_3| (0+32768))
   465     1586  3490               	retlw	high (STR_3| (0+32768))
   466     1587  3443               	retlw	low (STR_4| (0+32768))
   467     1588  3491               	retlw	high (STR_4| (0+32768))
   468     1589  34D3               	retlw	low (STR_5| (0+32768))
   469     158A  3490               	retlw	high (STR_5| (0+32768))
   470     158B  34BE               	retlw	low (STR_6| (0+32768))
   471     158C  3490               	retlw	high (STR_6| (0+32768))
   472     158D  341F               	retlw	low (STR_7| (0+32768))
   473     158E  3491               	retlw	high (STR_7| (0+32768))
   474     158F  34E7               	retlw	low (STR_8| (0+32768))
   475     1590  3490               	retlw	high (STR_8| (0+32768))
   476     1591  34FB               	retlw	low (STR_9| (0+32768))
   477     1592  3490               	retlw	high (STR_9| (0+32768))
   478     1593  340E               	retlw	low (STR_10| (0+32768))
   479     1594  3491               	retlw	high (STR_10| (0+32768))
   480     1595  34F1               	retlw	low (STR_11| (0+32768))
   481     1596  3490               	retlw	high (STR_11| (0+32768))
   482     1597  34B3               	retlw	low (STR_12| (0+32768))
   483     1598  3490               	retlw	high (STR_12| (0+32768))
   484                           
   485                           ;initializer for _water_level_option
   486     1599  3472               	retlw	low (STR_13| (0+32768))
   487     159A  3491               	retlw	high (STR_13| (0+32768))
   488     159B  3477               	retlw	low (STR_14| (0+32768))
   489     159C  3491               	retlw	high (STR_14| (0+32768))
   490     159D  343C               	retlw	low (STR_15| (0+32768))
   491     159E  3491               	retlw	high (STR_15| (0+32768))
   492     159F  3468               	retlw	low (STR_16| (0+32768))
   493     15A0  3491               	retlw	high (STR_16| (0+32768))
   494     15A1  347B               	retlw	low (STR_17| (0+32768))
   495     15A2  3491               	retlw	high (STR_17| (0+32768))
   496     0006                     _PORTB	set	6
   497     0008                     _PORTD	set	8
   498     0091                     _T2CKPS1	set	145
   499     0090                     _T2CKPS0	set	144
   500     0061                     _TMR2IF	set	97
   501     0049                     _RE1	set	73
   502     004A                     _RE2	set	74
   503     0030                     _RB0	set	48
   504     003A                     _RC2	set	58
   505     0092                     _TMR2ON	set	146
   506     005F                     _GIE	set	95
   507     005E                     _PEIE	set	94
   508     0039                     _RC1	set	57
   509     0092                     _PR2	set	146
   510     0086                     _TRISB	set	134
   511     0088                     _TRISD	set	136
   512     0461                     _TMR2IE	set	1121
   513     0449                     _TRISE1	set	1097
   514     044A                     _TRISE2	set	1098
   515     0439                     _TRISC1	set	1081
   516     043A                     _TRISC2	set	1082
   517                           
   518                           	psect	strings
   519     117F                     __pstrings:
   520     117F                     stringtab:
   521     117F                     __stringtab:
   522                           
   523                           ;	String table - string pointers are 2 bytes each
   524     117F  1BFF               	btfsc	btemp+1,7
   525     1180  2989               	ljmp	stringcode
   526     1181  1383               	bcf	3,7
   527     1182  187F               	btfsc	btemp+1,0
   528     1183  1783               	bsf	3,7
   529     1184  0800               	movf	0,w
   530     1185  0A84               	incf	4,f
   531     1186  1903               	skipnz
   532     1187  0AFF               	incf	btemp+1,f
   533     1188  0008               	return
   534     1189                     stringcode:
   535     1189  087F               	movf	btemp+1,w
   536     118A  397F               	andlw	127
   537     118B  008A               	movwf	10
   538     118C  0804               	movf	4,w
   539     118D  0A84               	incf	4,f
   540     118E  1903               	skipnz
   541     118F  0AFF               	incf	btemp+1,f
   542     1190  0082               	movwf	2
   543     1191                     __stringbase:
   544     1191                     __end_of__stringtab:
   545                           
   546                           	psect	stringtext
   547     1000                     __pstringtext:
   548     1000                     STR_33:
   549     1000  3435               	retlw	53	;'5'
   550     1001  342D               	retlw	45	;'-'
   551     1002  3453               	retlw	83	;'S'
   552     1003  3454               	retlw	84	;'T'
   553     1004  3441               	retlw	65	;'A'
   554     1005  3452               	retlw	82	;'R'
   555     1006  3454               	retlw	84	;'T'
   556     1007  3420               	retlw	32	;' '
   557     1008  3420               	retlw	32	;' '
   558     1009  3436               	retlw	54	;'6'
   559     100A  342D               	retlw	45	;'-'
   560     100B  3450               	retlw	80	;'P'
   561     100C  3441               	retlw	65	;'A'
   562     100D  3455               	retlw	85	;'U'
   563     100E  3453               	retlw	83	;'S'
   564     100F  3445               	retlw	69	;'E'
   565     1010  3400               	retlw	0
   566     1011                     STR_20:
   567     1011  3457               	retlw	87	;'W'
   568     1012  3461               	retlw	97	;'a'
   569     1013  3473               	retlw	115	;'s'
   570     1014  3468               	retlw	104	;'h'
   571     1015  3469               	retlw	105	;'i'
   572     1016  346E               	retlw	110	;'n'
   573     1017  3467               	retlw	103	;'g'
   574     1018  3420               	retlw	32	;' '
   575     1019  344D               	retlw	77	;'M'
   576     101A  3461               	retlw	97	;'a'
   577     101B  3463               	retlw	99	;'c'
   578     101C  3468               	retlw	104	;'h'
   579     101D  3469               	retlw	105	;'i'
   580     101E  346E               	retlw	110	;'n'
   581     101F  3465               	retlw	101	;'e'
   582     1020  3400               	retlw	0
   583     1021                     STR_26:
   584     1021  3457               	retlw	87	;'W'
   585     1022  3461               	retlw	97	;'a'
   586     1023  3473               	retlw	115	;'s'
   587     1024  3468               	retlw	104	;'h'
   588     1025  3469               	retlw	105	;'i'
   589     1026  346E               	retlw	110	;'n'
   590     1027  3467               	retlw	103	;'g'
   591     1028  345F               	retlw	95	;'_'
   592     1029  3450               	retlw	80	;'P'
   593     102A  3472               	retlw	114	;'r'
   594     102B  346F               	retlw	111	;'o'
   595     102C  3467               	retlw	103	;'g'
   596     102D  3472               	retlw	114	;'r'
   597     102E  3461               	retlw	97	;'a'
   598     102F  346D               	retlw	109	;'m'
   599     1030  3400               	retlw	0
   600     1031                     STR_41:
   601     1031  3450               	retlw	80	;'P'
   602     1032  3472               	retlw	114	;'r'
   603     1033  346F               	retlw	111	;'o'
   604     1034  3467               	retlw	103	;'g'
   605     1035  342E               	retlw	46	;'.'
   606     1036  3443               	retlw	67	;'C'
   607     1037  346F               	retlw	111	;'o'
   608     1038  346D               	retlw	109	;'m'
   609     1039  3470               	retlw	112	;'p'
   610     103A  346C               	retlw	108	;'l'
   611     103B  3465               	retlw	101	;'e'
   612     103C  3474               	retlw	116	;'t'
   613     103D  3465               	retlw	101	;'e'
   614     103E  3464               	retlw	100	;'d'
   615     103F  3400               	retlw	0
   616     1040                     STR_42:
   617     1040  3452               	retlw	82	;'R'
   618     1041  3465               	retlw	101	;'e'
   619     1042  346D               	retlw	109	;'m'
   620     1043  346F               	retlw	111	;'o'
   621     1044  3476               	retlw	118	;'v'
   622     1045  3465               	retlw	101	;'e'
   623     1046  3420               	retlw	32	;' '
   624     1047  3443               	retlw	67	;'C'
   625     1048  346C               	retlw	108	;'l'
   626     1049  346F               	retlw	111	;'o'
   627     104A  3474               	retlw	116	;'t'
   628     104B  3468               	retlw	104	;'h'
   629     104C  3465               	retlw	101	;'e'
   630     104D  3473               	retlw	115	;'s'
   631     104E  3400               	retlw	0
   632     104F                     STR_18:
   633     104F  3450               	retlw	80	;'P'
   634     1050  3472               	retlw	114	;'r'
   635     1051  3465               	retlw	101	;'e'
   636     1052  3473               	retlw	115	;'s'
   637     1053  3473               	retlw	115	;'s'
   638     1054  3420               	retlw	32	;' '
   639     1055  344B               	retlw	75	;'K'
   640     1056  3465               	retlw	101	;'e'
   641     1057  3479               	retlw	121	;'y'
   642     1058  3435               	retlw	53	;'5'
   643     1059  3420               	retlw	32	;' '
   644     105A  3454               	retlw	84	;'T'
   645     105B  346F               	retlw	111	;'o'
   646     105C  3400               	retlw	0
   647     105D                     STR_27:
   648     105D  3457               	retlw	87	;'W'
   649     105E  3461               	retlw	97	;'a'
   650     105F  3474               	retlw	116	;'t'
   651     1060  3465               	retlw	101	;'e'
   652     1061  3472               	retlw	114	;'r'
   653     1062  3420               	retlw	32	;' '
   654     1063  344C               	retlw	76	;'L'
   655     1064  3465               	retlw	101	;'e'
   656     1065  3476               	retlw	118	;'v'
   657     1066  3465               	retlw	101	;'e'
   658     1067  346C               	retlw	108	;'l'
   659     1068  343A               	retlw	58	;':'
   660     1069  3400               	retlw	0
   661     106A                     STR_44:
   662     106A  3450               	retlw	80	;'P'
   663     106B  346C               	retlw	108	;'l'
   664     106C  3465               	retlw	101	;'e'
   665     106D  3461               	retlw	97	;'a'
   666     106E  3473               	retlw	115	;'s'
   667     106F  3465               	retlw	101	;'e'
   668     1070  3420               	retlw	32	;' '
   669     1071  3443               	retlw	67	;'C'
   670     1072  346C               	retlw	108	;'l'
   671     1073  346F               	retlw	111	;'o'
   672     1074  3473               	retlw	115	;'s'
   673     1075  3465               	retlw	101	;'e'
   674     1076  3400               	retlw	0
   675     1077                     STR_21:
   676     1077  3450               	retlw	80	;'P'
   677     1078  3472               	retlw	114	;'r'
   678     1079  3465               	retlw	101	;'e'
   679     107A  3473               	retlw	115	;'s'
   680     107B  3473               	retlw	115	;'s'
   681     107C  3420               	retlw	32	;' '
   682     107D  3453               	retlw	83	;'S'
   683     107E  3477               	retlw	119	;'w'
   684     107F  3469               	retlw	105	;'i'
   685     1080  3474               	retlw	116	;'t'
   686     1081  3463               	retlw	99	;'c'
   687     1082  3468               	retlw	104	;'h'
   688     1083  3400               	retlw	0
   689     1084                     STR_31:
   690     1084  3446               	retlw	70	;'F'
   691     1085  3475               	retlw	117	;'u'
   692     1086  346E               	retlw	110	;'n'
   693     1087  3463               	retlw	99	;'c'
   694     1088  3474               	retlw	116	;'t'
   695     1089  3469               	retlw	105	;'i'
   696     108A  346F               	retlw	111	;'o'
   697     108B  346E               	retlw	110	;'n'
   698     108C  3420               	retlw	32	;' '
   699     108D  342D               	retlw	45	;'-'
   700     108E  3420               	retlw	32	;' '
   701     108F  3400               	retlw	0
   702     1090                     STR_43:
   703     1090  3444               	retlw	68	;'D'
   704     1091  346F               	retlw	111	;'o'
   705     1092  346F               	retlw	111	;'o'
   706     1093  3472               	retlw	114	;'r'
   707     1094  3420               	retlw	32	;' '
   708     1095  343A               	retlw	58	;':'
   709     1096  3420               	retlw	32	;' '
   710     1097  344F               	retlw	79	;'O'
   711     1098  3450               	retlw	80	;'P'
   712     1099  3445               	retlw	69	;'E'
   713     109A  344E               	retlw	78	;'N'
   714     109B  3400               	retlw	0
   715     109C                     STR_24:
   716     109C  3450               	retlw	80	;'P'
   717     109D  346F               	retlw	111	;'o'
   718     109E  3477               	retlw	119	;'w'
   719     109F  3465               	retlw	101	;'e'
   720     10A0  3472               	retlw	114	;'r'
   721     10A1  3469               	retlw	105	;'i'
   722     10A2  346E               	retlw	110	;'n'
   723     10A3  3467               	retlw	103	;'g'
   724     10A4  3420               	retlw	32	;' '
   725     10A5  344F               	retlw	79	;'O'
   726     10A6  346E               	retlw	110	;'n'
   727     10A7  3400               	retlw	0
   728     10A8                     STR_22:
   729     10A8  3453               	retlw	83	;'S'
   730     10A9  3457               	retlw	87	;'W'
   731     10AA  3435               	retlw	53	;'5'
   732     10AB  343A               	retlw	58	;':'
   733     10AC  3420               	retlw	32	;' '
   734     10AD  3453               	retlw	83	;'S'
   735     10AE  3454               	retlw	84	;'T'
   736     10AF  3441               	retlw	65	;'A'
   737     10B0  3452               	retlw	82	;'R'
   738     10B1  3454               	retlw	84	;'T'
   739     10B2  3400               	retlw	0
   740     10B3                     STR_12:
   741     10B3  3441               	retlw	65	;'A'
   742     10B4  3471               	retlw	113	;'q'
   743     10B5  3475               	retlw	117	;'u'
   744     10B6  3461               	retlw	97	;'a'
   745     10B7  3420               	retlw	32	;' '
   746     10B8  3473               	retlw	115	;'s'
   747     10B9  3474               	retlw	116	;'t'
   748     10BA  346F               	retlw	111	;'o'
   749     10BB  3472               	retlw	114	;'r'
   750     10BC  3465               	retlw	101	;'e'
   751     10BD  3400               	retlw	0
   752     10BE                     STR_6:
   753     10BE  3445               	retlw	69	;'E'
   754     10BF  3463               	retlw	99	;'c'
   755     10C0  346F               	retlw	111	;'o'
   756     10C1  3443               	retlw	67	;'C'
   757     10C2  346F               	retlw	111	;'o'
   758     10C3  3474               	retlw	116	;'t'
   759     10C4  3474               	retlw	116	;'t'
   760     10C5  346F               	retlw	111	;'o'
   761     10C6  346E               	retlw	110	;'n'
   762     10C7  3473               	retlw	115	;'s'
   763     10C8  3400               	retlw	0
   764     10C9                     STR_23:
   765     10C9  3453               	retlw	83	;'S'
   766     10CA  3457               	retlw	87	;'W'
   767     10CB  3436               	retlw	54	;'6'
   768     10CC  343A               	retlw	58	;':'
   769     10CD  3420               	retlw	32	;' '
   770     10CE  3453               	retlw	83	;'S'
   771     10CF  3454               	retlw	84	;'T'
   772     10D0  344F               	retlw	79	;'O'
   773     10D1  3450               	retlw	80	;'P'
   774     10D2  3400               	retlw	0
   775     10D3                     STR_5:
   776     10D3  3453               	retlw	83	;'S'
   777     10D4  3474               	retlw	116	;'t'
   778     10D5  3461               	retlw	97	;'a'
   779     10D6  3469               	retlw	105	;'i'
   780     10D7  346E               	retlw	110	;'n'
   781     10D8  3477               	retlw	119	;'w'
   782     10D9  3461               	retlw	97	;'a'
   783     10DA  3473               	retlw	115	;'s'
   784     10DB  3468               	retlw	104	;'h'
   785     10DC  3400               	retlw	0
   786     10DD                     STR_3:
   787     10DD  3444               	retlw	68	;'D'
   788     10DE  3465               	retlw	101	;'e'
   789     10DF  346C               	retlw	108	;'l'
   790     10E0  3469               	retlw	105	;'i'
   791     10E1  3463               	retlw	99	;'c'
   792     10E2  3461               	retlw	97	;'a'
   793     10E3  3474               	retlw	116	;'t'
   794     10E4  3465               	retlw	101	;'e'
   795     10E5  3473               	retlw	115	;'s'
   796     10E6  3400               	retlw	0
   797     10E7                     STR_8:
   798     10E7  3442               	retlw	66	;'B'
   799     10E8  3465               	retlw	101	;'e'
   800     10E9  3464               	retlw	100	;'d'
   801     10EA  3473               	retlw	115	;'s'
   802     10EB  3468               	retlw	104	;'h'
   803     10EC  3465               	retlw	101	;'e'
   804     10ED  3465               	retlw	101	;'e'
   805     10EE  3474               	retlw	116	;'t'
   806     10EF  3473               	retlw	115	;'s'
   807     10F0  3400               	retlw	0
   808     10F1                     STR_11:
   809     10F1  3457               	retlw	87	;'W'
   810     10F2  3461               	retlw	97	;'a'
   811     10F3  3473               	retlw	115	;'s'
   812     10F4  3468               	retlw	104	;'h'
   813     10F5  3420               	retlw	32	;' '
   814     10F6  346F               	retlw	111	;'o'
   815     10F7  346E               	retlw	110	;'n'
   816     10F8  346C               	retlw	108	;'l'
   817     10F9  3479               	retlw	121	;'y'
   818     10FA  3400               	retlw	0
   819     10FB                     STR_9:
   820     10FB  3452               	retlw	82	;'R'
   821     10FC  3469               	retlw	105	;'i'
   822     10FD  346E               	retlw	110	;'n'
   823     10FE  3473               	retlw	115	;'s'
   824     10FF  3465               	retlw	101	;'e'
   825     1100  342B               	retlw	43	;'+'
   826     1101  3444               	retlw	68	;'D'
   827     1102  3472               	retlw	114	;'r'
   828     1103  3479               	retlw	121	;'y'
   829     1104  3400               	retlw	0
   830     1105                     STR_19:
   831     1105  3450               	retlw	80	;'P'
   832     1106  346F               	retlw	111	;'o'
   833     1107  3477               	retlw	119	;'w'
   834     1108  3465               	retlw	101	;'e'
   835     1109  3472               	retlw	114	;'r'
   836     110A  3420               	retlw	32	;' '
   837     110B  344F               	retlw	79	;'O'
   838     110C  344E               	retlw	78	;'N'
   839     110D  3400               	retlw	0
   840     110E                     STR_10:
   841     110E  3444               	retlw	68	;'D'
   842     110F  3472               	retlw	114	;'r'
   843     1110  3479               	retlw	121	;'y'
   844     1111  3420               	retlw	32	;' '
   845     1112  346F               	retlw	111	;'o'
   846     1113  346E               	retlw	110	;'n'
   847     1114  346C               	retlw	108	;'l'
   848     1115  3479               	retlw	121	;'y'
   849     1116  3400               	retlw	0
   850     1117                     STR_30:
   851     1117  3428               	retlw	40	;'('
   852     1118  344D               	retlw	77	;'M'
   853     1119  344D               	retlw	77	;'M'
   854     111A  343A               	retlw	58	;':'
   855     111B  3453               	retlw	83	;'S'
   856     111C  3453               	retlw	83	;'S'
   857     111D  3429               	retlw	41	;')'
   858     111E  3400               	retlw	0
   859     111F                     STR_7:
   860     111F  3457               	retlw	87	;'W'
   861     1120  346F               	retlw	111	;'o'
   862     1121  346F               	retlw	111	;'o'
   863     1122  346C               	retlw	108	;'l'
   864     1123  3465               	retlw	101	;'e'
   865     1124  346E               	retlw	110	;'n'
   866     1125  3473               	retlw	115	;'s'
   867     1126  3400               	retlw	0
   868     1127                     STR_32:
   869     1127  3454               	retlw	84	;'T'
   870     1128  3449               	retlw	73	;'I'
   871     1129  344D               	retlw	77	;'M'
   872     112A  3445               	retlw	69	;'E'
   873     112B  343A               	retlw	58	;':'
   874     112C  3420               	retlw	32	;' '
   875     112D  3400               	retlw	0
   876     112E                     STR_29:
   877     112E  3454               	retlw	84	;'T'
   878     112F  3469               	retlw	105	;'i'
   879     1130  346D               	retlw	109	;'m'
   880     1131  3465               	retlw	101	;'e'
   881     1132  343A               	retlw	58	;':'
   882     1133  3420               	retlw	32	;' '
   883     1134  3400               	retlw	0
   884     1135                     STR_28:
   885     1135  3450               	retlw	80	;'P'
   886     1136  3472               	retlw	114	;'r'
   887     1137  346F               	retlw	111	;'o'
   888     1138  3467               	retlw	103	;'g'
   889     1139  343A               	retlw	58	;':'
   890     113A  3420               	retlw	32	;' '
   891     113B  3400               	retlw	0
   892     113C                     STR_15:
   893     113C  344D               	retlw	77	;'M'
   894     113D  3465               	retlw	101	;'e'
   895     113E  3464               	retlw	100	;'d'
   896     113F  3469               	retlw	105	;'i'
   897     1140  3475               	retlw	117	;'u'
   898     1141  346D               	retlw	109	;'m'
   899     1142  3400               	retlw	0
   900     1143                     STR_4:
   901     1143  3457               	retlw	87	;'W'
   902     1144  3468               	retlw	104	;'h'
   903     1145  3469               	retlw	105	;'i'
   904     1146  3474               	retlw	116	;'t'
   905     1147  3465               	retlw	101	;'e'
   906     1148  3473               	retlw	115	;'s'
   907     1149  3400               	retlw	0
   908     114A                     STR_40:
   909     114A  3457               	retlw	87	;'W'
   910     114B  3461               	retlw	97	;'a'
   911     114C  3473               	retlw	115	;'s'
   912     114D  3468               	retlw	104	;'h'
   913     114E  3420               	retlw	32	;' '
   914     114F  3400               	retlw	0
   915     1150                     STR_36:
   916     1150  3453               	retlw	83	;'S'
   917     1151  3470               	retlw	112	;'p'
   918     1152  3469               	retlw	105	;'i'
   919     1153  346E               	retlw	110	;'n'
   920     1154  3420               	retlw	32	;' '
   921     1155  3400               	retlw	0
   922     1156                     STR_35:
   923     1156  3452               	retlw	82	;'R'
   924     1157  3469               	retlw	105	;'i'
   925     1158  346E               	retlw	110	;'n'
   926     1159  3473               	retlw	115	;'s'
   927     115A  3465               	retlw	101	;'e'
   928     115B  3400               	retlw	0
   929     115C                     STR_1:
   930     115C  3444               	retlw	68	;'D'
   931     115D  3461               	retlw	97	;'a'
   932     115E  3469               	retlw	105	;'i'
   933     115F  346C               	retlw	108	;'l'
   934     1160  3479               	retlw	121	;'y'
   935     1161  3400               	retlw	0
   936     1162                     STR_2:
   937     1162  3448               	retlw	72	;'H'
   938     1163  3465               	retlw	101	;'e'
   939     1164  3461               	retlw	97	;'a'
   940     1165  3476               	retlw	118	;'v'
   941     1166  3479               	retlw	121	;'y'
   942     1167  3400               	retlw	0
   943     1168                     STR_16:
   944     1168  3448               	retlw	72	;'H'
   945     1169  3469               	retlw	105	;'i'
   946     116A  3467               	retlw	103	;'g'
   947     116B  3468               	retlw	104	;'h'
   948     116C  3400               	retlw	0
   949     116D                     STR_34:
   950     116D  3457               	retlw	87	;'W'
   951     116E  3461               	retlw	97	;'a'
   952     116F  3473               	retlw	115	;'s'
   953     1170  3468               	retlw	104	;'h'
   954     1171  3400               	retlw	0
   955     1172                     STR_13:
   956     1172  3441               	retlw	65	;'A'
   957     1173  3475               	retlw	117	;'u'
   958     1174  3474               	retlw	116	;'t'
   959     1175  346F               	retlw	111	;'o'
   960     1176  3400               	retlw	0
   961     1177                     STR_14:
   962     1177  344C               	retlw	76	;'L'
   963     1178  346F               	retlw	111	;'o'
   964     1179  3477               	retlw	119	;'w'
   965     117A  3400               	retlw	0
   966     117B                     STR_17:
   967     117B  344D               	retlw	77	;'M'
   968     117C  3461               	retlw	97	;'a'
   969     117D  3478               	retlw	120	;'x'
   970     117E  3400               	retlw	0
   971     1084                     
   972                           	psect	cinit
   973     000F                     start_initialization:	
   974                           ; #config settings
   975                           
   976     000F                     __initialization:
   977                           
   978                           ; Initialize objects allocated to BANK1
   979     000F  1383               	bcf	3,7	;select IRP bank0
   980     0010  30C2               	movlw	low (__pdataBANK1+34)
   981     0011  00FD               	movwf	btemp+-1
   982     0012  3015               	movlw	high __pidataBANK1
   983     0013  00FE               	movwf	btemp
   984     0014  3081               	movlw	low __pidataBANK1
   985     0015  00FF               	movwf	btemp+1
   986     0016  30A0               	movlw	low __pdataBANK1
   987     0017  0084               	movwf	4
   988     0018  160A  118A  2539  120A  118A  	fcall	init_ram0
   989                           
   990                           ; Initialize objects allocated to BANK0
   991     001D  306F               	movlw	low (__pdataBANK0+3)
   992     001E  00FD               	movwf	btemp+-1
   993     001F  3007               	movlw	high __pidataBANK0
   994     0020  00FE               	movwf	btemp
   995     0021  30FD               	movlw	low __pidataBANK0
   996     0022  00FF               	movwf	btemp+1
   997     0023  306C               	movlw	low __pdataBANK0
   998     0024  0084               	movwf	4
   999     0025  160A  118A  2539  120A  118A  	fcall	init_ram0
  1000                           
  1001                           ; Clear objects allocated to BANK1
  1002     002A  1683               	bsf	3,5	;RP0=1, select bank1
  1003     002B  1303               	bcf	3,6	;RP1=0, select bank1
  1004     002C  01C2               	clrf	__pbssBANK1& (0+127)
  1005     002D  01C3               	clrf	(__pbssBANK1+1)& (0+127)
  1006     002E  01C4               	clrf	(__pbssBANK1+2)& (0+127)
  1007     002F  01C5               	clrf	(__pbssBANK1+3)& (0+127)
  1008                           
  1009                           ; Clear objects allocated to BANK0
  1010     0030  1283               	bcf	3,5	;RP0=0, select bank0
  1011     0031  1303               	bcf	3,6	;RP1=0, select bank0
  1012     0032  01E0               	clrf	__pbssBANK0& (0+127)
  1013     0033  01E1               	clrf	(__pbssBANK0+1)& (0+127)
  1014     0034  01E2               	clrf	(__pbssBANK0+2)& (0+127)
  1015     0035  01E3               	clrf	(__pbssBANK0+3)& (0+127)
  1016     0036  01E4               	clrf	(__pbssBANK0+4)& (0+127)
  1017     0037  01E5               	clrf	(__pbssBANK0+5)& (0+127)
  1018     0038  01E6               	clrf	(__pbssBANK0+6)& (0+127)
  1019     0039  01E7               	clrf	(__pbssBANK0+7)& (0+127)
  1020     003A  01E8               	clrf	(__pbssBANK0+8)& (0+127)
  1021     003B  01E9               	clrf	(__pbssBANK0+9)& (0+127)
  1022     003C  01EA               	clrf	(__pbssBANK0+10)& (0+127)
  1023     003D  01EB               	clrf	(__pbssBANK0+11)& (0+127)
  1024                           
  1025                           ; Clear objects allocated to COMMON
  1026     003E  01FA               	clrf	__pbssCOMMON& (0+127)
  1027     003F  01FB               	clrf	(__pbssCOMMON+1)& (0+127)
  1028     0040                     end_of_initialization:	
  1029                           ;End of C runtime variable initialization code
  1030                           
  1031     0040                     __end_of__initialization:
  1032     0040  0183               	clrf	3
  1033     0041  120A  158A  2C9E   	ljmp	_main	;jump to C main() function
  1034                           
  1035                           	psect	bssCOMMON
  1036     007A                     __pbssCOMMON:
  1037     007A                     _water_level_index:
  1038     007A                     	ds	1
  1039     007B                     _program_no:
  1040     007B                     	ds	1
  1041                           
  1042                           	psect	bssBANK0
  1043     0060                     __pbssBANK0:
  1044     0060                     run_program@time:
  1045     0060                     	ds	2
  1046     0062                     run_program@total_time:
  1047     0062                     	ds	2
  1048     0064                     _wash_time:
  1049     0064                     	ds	2
  1050     0066                     _rinse_time:
  1051     0066                     	ds	2
  1052     0068                     read_digital_keypad@prev_key:
  1053     0068                     	ds	1
  1054     0069                     read_digital_keypad@longpress:
  1055     0069                     	ds	1
  1056     006A                     _sec:
  1057     006A                     	ds	1
  1058     006B                     _min:
  1059     006B                     	ds	1
  1060                           
  1061                           	psect	dataBANK0
  1062     006C                     __pdataBANK0:
  1063     006C                     read_digital_keypad@once:
  1064     006C                     	ds	1
  1065     006D                     _reset_mode:
  1066     006D                     	ds	1
  1067     006E                     _operation_mode:
  1068     006E                     	ds	1
  1069                           
  1070                           	psect	bssBANK1
  1071     00C2                     __pbssBANK1:
  1072     00C2                     isr@count:
  1073     00C2                     	ds	2
  1074     00C4                     _spin_time:
  1075     00C4                     	ds	2
  1076                           
  1077                           	psect	dataBANK1
  1078     00A0                     __pdataBANK1:
  1079     00A0                     _washing_prog:
  1080     00A0                     	ds	24
  1081     00B8                     _water_level_option:
  1082     00B8                     	ds	10
  1083                           
  1084                           	psect	inittext
  1085     1535                     init_fetch0:	
  1086                           ;	Called with low address in FSR and high address in W
  1087                           
  1088     1535  087E               	movf	btemp,w
  1089     1536  008A               	movwf	10
  1090     1537  087F               	movf	btemp+1,w
  1091     1538  0082               	movwf	2
  1092     1539                     init_ram0:	
  1093                           ;Called with:
  1094                           ;	high address of idata address in btemp 
  1095                           ;	low address of idata address in btemp+1 
  1096                           ;	low address of data in FSR
  1097                           ;	high address + 1 of data in btemp-1
  1098                           
  1099     1539  160A  118A  2535  160A  118A  	fcall	init_fetch0
  1100     153E  0080               	movwf	0
  1101     153F  0A84               	incf	4,f
  1102     1540  0804               	movf	4,w
  1103     1541  067D               	xorwf	btemp+-1,w
  1104     1542  1903               	btfsc	3,2
  1105     1543  3400               	retlw	0
  1106     1544  0AFF               	incf	btemp+1,f
  1107     1545  1903               	btfsc	3,2
  1108     1546  0AFE               	incf	btemp,f
  1109     1547  2D39               	goto	init_ram0
  1110                           
  1111                           	psect	cstackCOMMON
  1112     0070                     __pcstackCOMMON:
  1113     0070                     ?_init_digital_keypad:
  1114     0070                     ?_init_clcd:	
  1115                           ; 1 bytes @ 0x0
  1116                           
  1117     0070                     ?_init_timer2:	
  1118                           ; 1 bytes @ 0x0
  1119                           
  1120     0070                     ?_read_digital_keypad:	
  1121                           ; 1 bytes @ 0x0
  1122                           
  1123     0070                     ?_power_on_screen:	
  1124                           ; 1 bytes @ 0x0
  1125                           
  1126     0070                     ?_set_time:	
  1127                           ; 1 bytes @ 0x0
  1128                           
  1129     0070                     ?_clear_screen:	
  1130                           ; 1 bytes @ 0x0
  1131                           
  1132     0070                     ?_washing_program_display:	
  1133                           ; 1 bytes @ 0x0
  1134                           
  1135     0070                     ?_water_level_display:	
  1136                           ; 1 bytes @ 0x0
  1137                           
  1138     0070                     ?_run_program:	
  1139                           ; 1 bytes @ 0x0
  1140                           
  1141     0070                     ?_door_status_check:	
  1142                           ; 1 bytes @ 0x0
  1143                           
  1144     0070                     ?_init_config:	
  1145                           ; 1 bytes @ 0x0
  1146                           
  1147     0070                     ?_main:	
  1148                           ; 1 bytes @ 0x0
  1149                           
  1150     0070                     ?_init_display_controller:	
  1151                           ; 1 bytes @ 0x0
  1152                           
  1153     0070                     ?_isr:	
  1154                           ; 1 bytes @ 0x0
  1155                           
  1156     0070                     ??_isr:	
  1157                           ; 1 bytes @ 0x0
  1158                           
  1159                           
  1160                           ; 1 bytes @ 0x0
  1161     0070                     	ds	2
  1162     0072                     ??_init_digital_keypad:
  1163     0072                     ??_init_timer2:	
  1164                           ; 1 bytes @ 0x2
  1165                           
  1166     0072                     ??_read_digital_keypad:	
  1167                           ; 1 bytes @ 0x2
  1168                           
  1169     0072                     ??_set_time:	
  1170                           ; 1 bytes @ 0x2
  1171                           
  1172     0072                     ?_clcd_write:	
  1173                           ; 1 bytes @ 0x2
  1174                           
  1175     0072                     ?__Umul8_16:	
  1176                           ; 1 bytes @ 0x2
  1177                           
  1178     0072                     ?___wmul:	
  1179                           ; 2 bytes @ 0x2
  1180                           
  1181     0072                     ?___awdiv:	
  1182                           ; 2 bytes @ 0x2
  1183                           
  1184     0072                     ?___awmod:	
  1185                           ; 2 bytes @ 0x2
  1186                           
  1187     0072                     ?___fladd:	
  1188                           ; 2 bytes @ 0x2
  1189                           
  1190     0072                     ?___xxtofl:	
  1191                           ; 4 bytes @ 0x2
  1192                           
  1193     0072                     clcd_write@mode:	
  1194                           ; 4 bytes @ 0x2
  1195                           
  1196     0072                     __Umul8_16@multiplicand:	
  1197                           ; 1 bytes @ 0x2
  1198                           
  1199     0072                     ___wmul@multiplier:	
  1200                           ; 1 bytes @ 0x2
  1201                           
  1202     0072                     ___awdiv@divisor:	
  1203                           ; 2 bytes @ 0x2
  1204                           
  1205     0072                     ___awmod@divisor:	
  1206                           ; 2 bytes @ 0x2
  1207                           
  1208     0072                     ___fladd@b:	
  1209                           ; 2 bytes @ 0x2
  1210                           
  1211     0072                     ___xxtofl@val:	
  1212                           ; 4 bytes @ 0x2
  1213                           
  1214                           
  1215                           ; 4 bytes @ 0x2
  1216     0072                     	ds	1
  1217     0073                     ??_clcd_write:
  1218     0073                     read_digital_keypad@mode:	
  1219                           ; 1 bytes @ 0x3
  1220                           
  1221                           
  1222                           ; 1 bytes @ 0x3
  1223     0073                     	ds	1
  1224     0074                     ??__Umul8_16:
  1225     0074                     ___wmul@multiplicand:	
  1226                           ; 1 bytes @ 0x4
  1227                           
  1228     0074                     ___awdiv@dividend:	
  1229                           ; 2 bytes @ 0x4
  1230                           
  1231     0074                     ___awmod@dividend:	
  1232                           ; 2 bytes @ 0x4
  1233                           
  1234                           
  1235                           ; 2 bytes @ 0x4
  1236     0074                     	ds	1
  1237     0075                     clcd_write@byte:
  1238                           
  1239                           ; 1 bytes @ 0x5
  1240     0075                     	ds	1
  1241     0076                     ?_clcd_print:
  1242     0076                     ??_clear_screen:	
  1243                           ; 1 bytes @ 0x6
  1244                           
  1245     0076                     ??_init_display_controller:	
  1246                           ; 1 bytes @ 0x6
  1247                           
  1248     0076                     ??___wmul:	
  1249                           ; 1 bytes @ 0x6
  1250                           
  1251     0076                     ??___awdiv:	
  1252                           ; 1 bytes @ 0x6
  1253                           
  1254     0076                     ??___awmod:	
  1255                           ; 1 bytes @ 0x6
  1256                           
  1257     0076                     ??___xxtofl:	
  1258                           ; 1 bytes @ 0x6
  1259                           
  1260     0076                     ___awdiv@counter:	
  1261                           ; 1 bytes @ 0x6
  1262                           
  1263     0076                     ___awmod@counter:	
  1264                           ; 1 bytes @ 0x6
  1265                           
  1266     0076                     clcd_print@str:	
  1267                           ; 1 bytes @ 0x6
  1268                           
  1269     0076                     ___wmul@product:	
  1270                           ; 2 bytes @ 0x6
  1271                           
  1272     0076                     ___fladd@a:	
  1273                           ; 2 bytes @ 0x6
  1274                           
  1275                           
  1276                           ; 4 bytes @ 0x6
  1277     0076                     	ds	1
  1278     0077                     ___awdiv@sign:
  1279     0077                     ___awmod@sign:	
  1280                           ; 1 bytes @ 0x7
  1281                           
  1282                           
  1283                           ; 1 bytes @ 0x7
  1284     0077                     	ds	1
  1285     0078                     ??_init_clcd:
  1286     0078                     ??_init_config:	
  1287                           ; 1 bytes @ 0x8
  1288                           
  1289     0078                     clcd_print@addr:	
  1290                           ; 1 bytes @ 0x8
  1291                           
  1292     0078                     ___awdiv@quotient:	
  1293                           ; 1 bytes @ 0x8
  1294                           
  1295                           
  1296                           ; 2 bytes @ 0x8
  1297     0078                     	ds	1
  1298     0079                     ??_clcd_print:
  1299     0079                     ??_door_status_check:	
  1300                           ; 1 bytes @ 0x9
  1301                           
  1302                           
  1303                           ; 1 bytes @ 0x9
  1304     0079                     	ds	1
  1305     007A                     ??_clcd_putch:
  1306     007A                     ??_main:	
  1307                           ; 1 bytes @ 0xA
  1308                           
  1309     007A                     ??___flsub:	
  1310                           ; 1 bytes @ 0xA
  1311                           
  1312                           
  1313                           	psect	cstackBANK0
  1314     0020                     __pcstackBANK0:	
  1315                           ; 1 bytes @ 0xA
  1316                           
  1317     0020                     ?_clcd_putch:
  1318     0020                     ??___fladd:	
  1319                           ; 1 bytes @ 0x0
  1320                           
  1321     0020                     clcd_putch@addr:	
  1322                           ; 1 bytes @ 0x0
  1323                           
  1324     0020                     ___xxtofl@sign:	
  1325                           ; 1 bytes @ 0x0
  1326                           
  1327     0020                     __Umul8_16@product:	
  1328                           ; 1 bytes @ 0x0
  1329                           
  1330                           
  1331                           ; 2 bytes @ 0x0
  1332     0020                     	ds	1
  1333     0021                     clcd_putch@data:
  1334     0021                     ___xxtofl@exp:	
  1335                           ; 1 bytes @ 0x1
  1336                           
  1337                           
  1338                           ; 1 bytes @ 0x1
  1339     0021                     	ds	1
  1340     0022                     ??_power_on_screen:
  1341     0022                     ??_washing_program_display:	
  1342                           ; 1 bytes @ 0x2
  1343                           
  1344     0022                     ??_water_level_display:	
  1345                           ; 1 bytes @ 0x2
  1346                           
  1347     0022                     __Umul8_16@word_mpld:	
  1348                           ; 1 bytes @ 0x2
  1349                           
  1350     0022                     ___xxtofl@arg:	
  1351                           ; 2 bytes @ 0x2
  1352                           
  1353                           
  1354                           ; 4 bytes @ 0x2
  1355     0022                     	ds	2
  1356     0024                     washing_program_display@key:
  1357     0024                     water_level_display@key:	
  1358                           ; 1 bytes @ 0x4
  1359                           
  1360     0024                     __Umul8_16@multiplier:	
  1361                           ; 1 bytes @ 0x4
  1362                           
  1363                           
  1364                           ; 1 bytes @ 0x4
  1365     0024                     	ds	1
  1366     0025                     power_on_screen@i:
  1367                           
  1368                           ; 1 bytes @ 0x5
  1369     0025                     	ds	1
  1370     0026                     ?___flmul:
  1371     0026                     power_on_screen@i_144:	
  1372                           ; 4 bytes @ 0x6
  1373                           
  1374     0026                     ___flmul@b:	
  1375                           ; 1 bytes @ 0x6
  1376                           
  1377                           
  1378                           ; 4 bytes @ 0x6
  1379     0026                     	ds	2
  1380     0028                     ___fladd@signs:
  1381                           
  1382                           ; 1 bytes @ 0x8
  1383     0028                     	ds	1
  1384     0029                     ___fladd@aexp:
  1385                           
  1386                           ; 1 bytes @ 0x9
  1387     0029                     	ds	1
  1388     002A                     ___fladd@bexp:
  1389     002A                     ___flmul@a:	
  1390                           ; 1 bytes @ 0xA
  1391                           
  1392                           
  1393                           ; 4 bytes @ 0xA
  1394     002A                     	ds	1
  1395     002B                     ___fladd@grs:
  1396                           
  1397                           ; 1 bytes @ 0xB
  1398     002B                     	ds	3
  1399     002E                     ??___flmul:
  1400                           
  1401                           ; 1 bytes @ 0xE
  1402     002E                     	ds	5
  1403     0033                     ___flmul@sign:
  1404                           
  1405                           ; 1 bytes @ 0x13
  1406     0033                     	ds	1
  1407     0034                     ___flmul@aexp:
  1408                           
  1409                           ; 1 bytes @ 0x14
  1410     0034                     	ds	1
  1411     0035                     ___flmul@grs:
  1412                           
  1413                           ; 4 bytes @ 0x15
  1414     0035                     	ds	4
  1415     0039                     ___flmul@bexp:
  1416                           
  1417                           ; 1 bytes @ 0x19
  1418     0039                     	ds	1
  1419     003A                     ___flmul@prod:
  1420                           
  1421                           ; 4 bytes @ 0x1A
  1422     003A                     	ds	4
  1423     003E                     ___flmul@temp:
  1424                           
  1425                           ; 2 bytes @ 0x1E
  1426     003E                     	ds	2
  1427     0040                     ?___fltol:
  1428     0040                     ?___flsub:	
  1429                           ; 4 bytes @ 0x20
  1430                           
  1431     0040                     ___fltol@f1:	
  1432                           ; 4 bytes @ 0x20
  1433                           
  1434     0040                     ___flsub@a:	
  1435                           ; 4 bytes @ 0x20
  1436                           
  1437                           
  1438                           ; 4 bytes @ 0x20
  1439     0040                     	ds	4
  1440     0044                     ??___fltol:
  1441     0044                     ___flsub@b:	
  1442                           ; 1 bytes @ 0x24
  1443                           
  1444                           
  1445                           ; 4 bytes @ 0x24
  1446     0044                     	ds	4
  1447     0048                     ?___flge:
  1448     0048                     ___fltol@sign1:	
  1449                           ; 1 bit 
  1450                           
  1451     0048                     ___flge@ff1:	
  1452                           ; 1 bytes @ 0x28
  1453                           
  1454                           
  1455                           ; 4 bytes @ 0x28
  1456     0048                     	ds	1
  1457     0049                     ___fltol@exp1:
  1458                           
  1459                           ; 1 bytes @ 0x29
  1460     0049                     	ds	3
  1461     004C                     ___flge@ff2:
  1462                           
  1463                           ; 4 bytes @ 0x2C
  1464     004C                     	ds	4
  1465     0050                     ??___flge:
  1466                           
  1467                           ; 1 bytes @ 0x30
  1468     0050                     	ds	4
  1469     0054                     ??_run_program:
  1470                           
  1471                           ; 1 bytes @ 0x34
  1472     0054                     	ds	6
  1473     005A                     run_program@key:
  1474                           
  1475                           ; 1 bytes @ 0x3A
  1476     005A                     	ds	1
  1477     005B                     main@wait:
  1478                           
  1479                           ; 2 bytes @ 0x3B
  1480     005B                     	ds	2
  1481     005D                     main@wait_136:
  1482                           
  1483                           ; 2 bytes @ 0x3D
  1484     005D                     	ds	2
  1485     005F                     main@key:
  1486                           
  1487                           ; 1 bytes @ 0x3F
  1488     005F                     	ds	1
  1489                           
  1490                           	psect	maintext
  1491     0C9E                     __pmaintext:	
  1492 ;;
  1493 ;;Main: autosize = 0, tempsize = 0, incstack = 0, save=0
  1494 ;;
  1495 ;; *************** function _main *****************
  1496 ;; Defined at:
  1497 ;;		line 48 in file "main.c"
  1498 ;; Parameters:    Size  Location     Type
  1499 ;;		None
  1500 ;; Auto vars:     Size  Location     Type
  1501 ;;  wait            2   61[BANK0 ] unsigned int 
  1502 ;;  wait            2   59[BANK0 ] unsigned int 
  1503 ;;  key             1   63[BANK0 ] unsigned char 
  1504 ;; Return value:  Size  Location     Type
  1505 ;;                  1    wreg      void 
  1506 ;; Registers used:
  1507 ;;		wreg, fsr0l, fsr0h, status,2, status,0, btemp+1, pclath, cstack
  1508 ;; Tracked objects:
  1509 ;;		On entry : B00/0
  1510 ;;		On exit  : 0/0
  1511 ;;		Unchanged: 0/0
  1512 ;; Data sizes:     COMMON   BANK0   BANK1   BANK3   BANK2
  1513 ;;      Params:         0       0       0       0       0
  1514 ;;      Locals:         0       5       0       0       0
  1515 ;;      Temps:          0       0       0       0       0
  1516 ;;      Totals:         0       5       0       0       0
  1517 ;;Total ram usage:        5 bytes
  1518 ;; Hardware stack levels required when called: 5
  1519 ;; This function calls:
  1520 ;;		_clcd_print
  1521 ;;		_clear_screen
  1522 ;;		_init_config
  1523 ;;		_power_on_screen
  1524 ;;		_read_digital_keypad
  1525 ;;		_run_program
  1526 ;;		_set_time
  1527 ;;		_washing_program_display
  1528 ;;		_water_level_display
  1529 ;; This function is called by:
  1530 ;;		Startup code after reset
  1531 ;; This function uses a non-reentrant model
  1532 ;;
  1533                           
  1534     0C9E                     _main:	
  1535                           ;psect for function _main
  1536                           
  1537     0C9E                     l3544:	
  1538                           ;incstack = 0
  1539                           ; Regs used in _main: [wreg-fsr0h+status,2+status,0+btemp+1+pclath+cstack]
  1540                           
  1541                           
  1542                           ;main.c: 50:     while (1)
  1543     0C9E  160A  118A  2548  120A  158A  	fcall	_init_config
  1544     0CA3                     l3546:
  1545     0CA3  3001               	movlw	1
  1546     0CA4  160A  118A  27A1  120A  158A  	fcall	_read_digital_keypad
  1547     0CA9                     l3548:
  1548                           
  1549                           ;main.c: 54: 
  1550     0CA9  304F               	movlw	low (STR_18| (0+32768))
  1551     0CAA  00F6               	movwf	clcd_print@str
  1552     0CAB  3090               	movlw	high (STR_18| (0+32768))
  1553     0CAC  00F7               	movwf	clcd_print@str+1
  1554     0CAD  3081               	movlw	129
  1555     0CAE  00F8               	movwf	clcd_print@addr
  1556     0CAF  160A  118A  2615  120A  158A  	fcall	_clcd_print
  1557     0CB4                     l3550:
  1558                           
  1559                           ;main.c: 55: 
  1560     0CB4  3005               	movlw	low (STR_19| (0+32768))
  1561     0CB5  00F6               	movwf	clcd_print@str
  1562     0CB6  3091               	movlw	high (STR_19| (0+32768))
  1563     0CB7  00F7               	movwf	clcd_print@str+1
  1564     0CB8  30C4               	movlw	196
  1565     0CB9  00F8               	movwf	clcd_print@addr
  1566     0CBA  160A  118A  2615  120A  158A  	fcall	_clcd_print
  1567     0CBF                     l3552:
  1568                           
  1569                           ;main.c: 56:         if(key == 0xB7 && operation_mode == 0x01)
  1570     0CBF  3011               	movlw	low (STR_20| (0+32768))
  1571     0CC0  00F6               	movwf	clcd_print@str
  1572     0CC1  3090               	movlw	high (STR_20| (0+32768))
  1573     0CC2  00F7               	movwf	clcd_print@str+1
  1574     0CC3  3091               	movlw	145
  1575     0CC4  00F8               	movwf	clcd_print@addr
  1576     0CC5  160A  118A  2615  120A  158A  	fcall	_clcd_print
  1577                           
  1578                           ;main.c: 59:             reset_mode = 0x11;
  1579     0CCA  2CDF               	goto	l3558
  1580     0CCB                     l3554:
  1581                           
  1582                           ;main.c: 60:         };main.c: 61: 
  1583     0CCB  30B8               	movlw	184
  1584     0CCC  1283               	bcf	3,5	;RP0=0, select bank0
  1585     0CCD  1303               	bcf	3,6	;RP1=0, select bank0
  1586     0CCE  00DB               	movwf	main@wait
  1587     0CCF  300B               	movlw	11
  1588     0CD0  00DC               	movwf	main@wait+1
  1589     0CD1                     l3556:
  1590     0CD1  3001               	movlw	1
  1591     0CD2  02DB               	subwf	main@wait,f
  1592     0CD3  3000               	movlw	0
  1593     0CD4  1C03               	skipc
  1594     0CD5  03DC               	decf	main@wait+1,f
  1595     0CD6  02DC               	subwf	main@wait+1,f
  1596     0CD7  0A5B               	incf	main@wait,w
  1597     0CD8  1D03               	skipz
  1598     0CD9  2CDE               	goto	u4601
  1599     0CDA  0A5C               	incf	main@wait+1,w
  1600     0CDB  1D03               	btfss	3,2
  1601     0CDC  2CDE               	goto	u4601
  1602     0CDD  2CDF               	goto	u4600
  1603     0CDE                     u4601:
  1604     0CDE  2CD1               	goto	l3556
  1605     0CDF                     u4600:
  1606     0CDF                     l3558:
  1607                           
  1608                           ;main.c: 59:             reset_mode = 0x11;
  1609     0CDF  3001               	movlw	1
  1610     0CE0  160A  118A  27A1  120A  158A  	fcall	_read_digital_keypad
  1611     0CE5  3A2F               	xorlw	47
  1612     0CE6  1D03               	skipz
  1613     0CE7  2CE9               	goto	u4611
  1614     0CE8  2CEA               	goto	u4610
  1615     0CE9                     u4611:
  1616     0CE9  2CCB               	goto	l3554
  1617     0CEA                     u4610:
  1618     0CEA                     l3560:
  1619                           
  1620                           ;main.c: 64:             set_time();
  1621     0CEA  160A  118A  2746  120A  158A  	fcall	_power_on_screen
  1622     0CEF                     l3562:
  1623                           
  1624                           ;main.c: 68:             clcd_print("Press Switch", (0x80 + 1));;main.c: 69:            
      +                           clcd_print("SW5: START", (0xC0 + 1));
  1625     0CEF  3001               	movlw	1
  1626     0CF0  160A  118A  27A1  120A  158A  	fcall	_read_digital_keypad
  1627     0CF5  1283               	bcf	3,5	;RP0=0, select bank0
  1628     0CF6  1303               	bcf	3,6	;RP1=0, select bank0
  1629     0CF7  00DF               	movwf	main@key
  1630     0CF8                     l3564:
  1631                           
  1632                           ;main.c: 70:             clcd_print("SW6: STOP", (0x90 + 1));
  1633     0CF8  30B8               	movlw	184
  1634     0CF9  00DD               	movwf	main@wait_136
  1635     0CFA  300B               	movlw	11
  1636     0CFB  00DE               	movwf	main@wait_136+1
  1637     0CFC                     l3566:
  1638     0CFC  3001               	movlw	1
  1639     0CFD  02DD               	subwf	main@wait_136,f
  1640     0CFE  3000               	movlw	0
  1641     0CFF  1C03               	skipc
  1642     0D00  03DE               	decf	main@wait_136+1,f
  1643     0D01  02DE               	subwf	main@wait_136+1,f
  1644     0D02  0A5D               	incf	main@wait_136,w
  1645     0D03  1D03               	skipz
  1646     0D04  2D09               	goto	u4621
  1647     0D05  0A5E               	incf	main@wait_136+1,w
  1648     0D06  1D03               	btfss	3,2
  1649     0D07  2D09               	goto	u4621
  1650     0D08  2D0A               	goto	u4620
  1651     0D09                     u4621:
  1652     0D09  2CFC               	goto	l3566
  1653     0D0A                     u4620:
  1654     0D0A                     l3568:
  1655                           
  1656                           ;main.c: 73:         if(key == 0x2F && operation_mode == 0x05)
  1657     0D0A  30B7               	movlw	183
  1658     0D0B  065F               	xorwf	main@key,w
  1659     0D0C  1D03               	btfss	3,2
  1660     0D0D  2D0F               	goto	u4631
  1661     0D0E  2D10               	goto	u4630
  1662     0D0F                     u4631:
  1663     0D0F  2D1A               	goto	l3574
  1664     0D10                     u4630:
  1665     0D10                     l3570:
  1666     0D10  036E               	decf	_operation_mode,w
  1667     0D11  1D03               	btfss	3,2
  1668     0D12  2D14               	goto	u4641
  1669     0D13  2D15               	goto	u4640
  1670     0D14                     u4641:
  1671     0D14  2D1A               	goto	l3574
  1672     0D15                     u4640:
  1673     0D15                     l3572:
  1674                           
  1675                           ;main.c: 74:         {;main.c: 75:             TMR2ON = 1;
  1676     0D15  3002               	movlw	2
  1677     0D16  00EE               	movwf	_operation_mode
  1678                           
  1679                           ;main.c: 76:             RC2 = 1;
  1680     0D17  3011               	movlw	17
  1681     0D18  00ED               	movwf	_reset_mode
  1682                           
  1683                           ;main.c: 77:             operation_mode = 0x04;
  1684     0D19  2D55               	goto	l3590
  1685     0D1A                     l3574:
  1686     0D1A  30B7               	movlw	183
  1687     0D1B  065F               	xorwf	main@key,w
  1688     0D1C  1D03               	btfss	3,2
  1689     0D1D  2D1F               	goto	u4651
  1690     0D1E  2D20               	goto	u4650
  1691     0D1F                     u4651:
  1692     0D1F  2D55               	goto	l3590
  1693     0D20                     u4650:
  1694     0D20                     l3576:
  1695     0D20  3002               	movlw	2
  1696     0D21  066E               	xorwf	_operation_mode,w
  1697     0D22  1D03               	btfss	3,2
  1698     0D23  2D25               	goto	u4661
  1699     0D24  2D26               	goto	u4660
  1700     0D25                     u4661:
  1701     0D25  2D55               	goto	l3590
  1702     0D26                     u4660:
  1703     0D26                     l3578:
  1704                           
  1705                           ;main.c: 80:         switch (operation_mode);main.c: 81:         {
  1706     0D26  120A  158A  21BE  120A  158A  	fcall	_set_time
  1707     0D2B                     l3580:
  1708                           
  1709                           ;main.c: 83:                 washing_program_display(key);
  1710     0D2B  3003               	movlw	3
  1711     0D2C  1283               	bcf	3,5	;RP0=0, select bank0
  1712     0D2D  1303               	bcf	3,6	;RP1=0, select bank0
  1713     0D2E  00EE               	movwf	_operation_mode
  1714     0D2F                     l3582:
  1715                           
  1716                           ;main.c: 84:                 break;
  1717     0D2F  160A  118A  2528  120A  158A  	fcall	_clear_screen
  1718     0D34                     l3584:
  1719                           
  1720                           ;main.c: 85:             case 0X02:
  1721     0D34  3077               	movlw	low (STR_21| (0+32768))
  1722     0D35  00F6               	movwf	clcd_print@str
  1723     0D36  3090               	movlw	high (STR_21| (0+32768))
  1724     0D37  00F7               	movwf	clcd_print@str+1
  1725     0D38  3081               	movlw	129
  1726     0D39  00F8               	movwf	clcd_print@addr
  1727     0D3A  160A  118A  2615  120A  158A  	fcall	_clcd_print
  1728     0D3F                     l3586:
  1729                           
  1730                           ;main.c: 86:                 water_level_display(key);
  1731     0D3F  30A8               	movlw	low (STR_22| (0+32768))
  1732     0D40  00F6               	movwf	clcd_print@str
  1733     0D41  3090               	movlw	high (STR_22| (0+32768))
  1734     0D42  00F7               	movwf	clcd_print@str+1
  1735     0D43  30C1               	movlw	193
  1736     0D44  00F8               	movwf	clcd_print@addr
  1737     0D45  160A  118A  2615  120A  158A  	fcall	_clcd_print
  1738     0D4A                     l3588:
  1739                           
  1740                           ;main.c: 87:                 break;
  1741     0D4A  30C9               	movlw	low (STR_23| (0+32768))
  1742     0D4B  00F6               	movwf	clcd_print@str
  1743     0D4C  3090               	movlw	high (STR_23| (0+32768))
  1744     0D4D  00F7               	movwf	clcd_print@str+1
  1745     0D4E  3091               	movlw	145
  1746     0D4F  00F8               	movwf	clcd_print@addr
  1747     0D50  160A  118A  2615  120A  158A  	fcall	_clcd_print
  1748     0D55                     l3590:
  1749                           
  1750                           ;main.c: 90:                 {
  1751     0D55  302F               	movlw	47
  1752     0D56  1283               	bcf	3,5	;RP0=0, select bank0
  1753     0D57  1303               	bcf	3,6	;RP1=0, select bank0
  1754     0D58  065F               	xorwf	main@key,w
  1755     0D59  1D03               	btfss	3,2
  1756     0D5A  2D5C               	goto	u4671
  1757     0D5B  2D5D               	goto	u4670
  1758     0D5C                     u4671:
  1759     0D5C  2D93               	goto	l3618
  1760     0D5D                     u4670:
  1761     0D5D                     l3592:
  1762     0D5D  3005               	movlw	5
  1763     0D5E  066E               	xorwf	_operation_mode,w
  1764     0D5F  1D03               	btfss	3,2
  1765     0D60  2D62               	goto	u4681
  1766     0D61  2D63               	goto	u4680
  1767     0D62                     u4681:
  1768     0D62  2D93               	goto	l3618
  1769     0D63                     u4680:
  1770     0D63                     l3594:
  1771                           
  1772                           ;main.c: 91:                     operation_mode = 0x04;;main.c: 92:                     
      +                          reset_mode = 0x12;
  1773     0D63  1512               	bsf	18,2	;volatile
  1774                           
  1775                           ;main.c: 93:                     continue;
  1776     0D64  1507               	bsf	7,2	;volatile
  1777     0D65                     l3596:
  1778                           
  1779                           ;main.c: 94:                 }
  1780     0D65  3004               	movlw	4
  1781     0D66  00EE               	movwf	_operation_mode
  1782     0D67  2D93               	goto	l3618
  1783     0D68                     l3598:
  1784                           
  1785                           ;main.c: 100:                 }
  1786     0D68  085F               	movf	main@key,w
  1787     0D69  120A  158A  22B2  120A  158A  	fcall	_washing_program_display
  1788                           
  1789                           ;main.c: 101:                 break;
  1790     0D6E  2DA1               	goto	l3620
  1791     0D6F                     l3600:
  1792                           
  1793                           ;main.c: 103:                 run_program(key);
  1794     0D6F  085F               	movf	main@key,w
  1795     0D70  120A  158A  23A8  120A  158A  	fcall	_water_level_display
  1796                           
  1797                           ;main.c: 104:                 break;
  1798     0D75  2DA1               	goto	l3620
  1799     0D76                     l3602:
  1800                           
  1801                           ;main.c: 106:         reset_mode = 0x00;
  1802     0D76  302F               	movlw	47
  1803     0D77  065F               	xorwf	main@key,w
  1804     0D78  1D03               	btfss	3,2
  1805     0D79  2D7B               	goto	u4691
  1806     0D7A  2D7C               	goto	u4690
  1807     0D7B                     u4691:
  1808     0D7B  2D81               	goto	l3608
  1809     0D7C                     u4690:
  1810     0D7C                     l3604:
  1811                           
  1812                           ;main.c: 107: ;main.c: 108:     }
  1813     0D7C  3004               	movlw	4
  1814     0D7D  00EE               	movwf	_operation_mode
  1815                           
  1816                           ;main.c: 109: 
  1817     0D7E  3012               	movlw	18
  1818     0D7F  00ED               	movwf	_reset_mode
  1819                           
  1820                           ;main.c: 110: }
  1821     0D80  2CEF               	goto	l3562
  1822     0D81                     l3608:
  1823     0D81  301F               	movlw	31
  1824     0D82  065F               	xorwf	main@key,w
  1825     0D83  1D03               	btfss	3,2
  1826     0D84  2D86               	goto	u4701
  1827     0D85  2D87               	goto	u4700
  1828     0D86                     u4701:
  1829     0D86  2DA1               	goto	l3620
  1830     0D87                     u4700:
  1831     0D87                     l3610:
  1832                           
  1833                           ;main.c: 113: {;main.c: 114: 
  1834     0D87  01EE               	clrf	_operation_mode
  1835     0D88  0AEE               	incf	_operation_mode,f
  1836     0D89                     l3612:
  1837                           
  1838                           ;main.c: 115:     for(unsigned char i = 0 ; i < 16 ; i++)
  1839     0D89  3010               	movlw	16
  1840     0D8A  00ED               	movwf	_reset_mode
  1841                           
  1842                           ;main.c: 116:     {
  1843     0D8B  2CEF               	goto	l3562
  1844     0D8C                     l3614:
  1845                           
  1846                           ;main.c: 120:     clcd_print("Washing Machine", (0x90 + 1));
  1847     0D8C  085F               	movf	main@key,w
  1848     0D8D  120A  118A  2044  120A  158A  	fcall	_run_program
  1849                           
  1850                           ;main.c: 121:     for(unsigned char i = 0; i < 16 ; i++)
  1851     0D92  2DA1               	goto	l3620
  1852     0D93                     l3618:
  1853     0D93  086E               	movf	_operation_mode,w
  1854                           
  1855                           ; Switch size 1, requested type "simple"
  1856                           ; Number of cases is 4, Range of values is 1 to 4
  1857                           ; switch strategies available:
  1858                           ; Name         Instructions Cycles
  1859                           ; simple_byte           13     7 (average)
  1860                           ; direct_byte           23    11 (fixed)
  1861                           ; jumptable            263     9 (fixed)
  1862                           ;	Chosen strategy is simple_byte
  1863     0D94  3A01               	xorlw	1	; case 1
  1864     0D95  1903               	skipnz
  1865     0D96  2D68               	goto	l3598
  1866     0D97  3A03               	xorlw	3	; case 2
  1867     0D98  1903               	skipnz
  1868     0D99  2D6F               	goto	l3600
  1869     0D9A  3A01               	xorlw	1	; case 3
  1870     0D9B  1903               	skipnz
  1871     0D9C  2D76               	goto	l3602
  1872     0D9D  3A07               	xorlw	7	; case 4
  1873     0D9E  1903               	skipnz
  1874     0D9F  2D8C               	goto	l3614
  1875     0DA0  2DA1               	goto	l3620
  1876     0DA1                     l3620:
  1877                           
  1878                           ;main.c: 123:     clcd_putch (0xFF,(0xD0 + i));
  1879     0DA1  1283               	bcf	3,5	;RP0=0, select bank0
  1880     0DA2  1303               	bcf	3,6	;RP1=0, select bank0
  1881     0DA3  01ED               	clrf	_reset_mode
  1882     0DA4  2CEF               	goto	l3562
  1883     0DA5  120A  118A  280C   	ljmp	start
  1884     0DA8                     __end_of_main:
  1885                           
  1886                           	psect	text1
  1887     0BA8                     __ptext1:	
  1888 ;; *************** function _water_level_display *****************
  1889 ;; Defined at:
  1890 ;;		line 199 in file "main.c"
  1891 ;; Parameters:    Size  Location     Type
  1892 ;;  key             1    wreg     unsigned char 
  1893 ;; Auto vars:     Size  Location     Type
  1894 ;;  key             1    4[BANK0 ] unsigned char 
  1895 ;; Return value:  Size  Location     Type
  1896 ;;                  1    wreg      void 
  1897 ;; Registers used:
  1898 ;;		wreg, fsr0l, fsr0h, status,2, status,0, btemp+1, pclath, cstack
  1899 ;; Tracked objects:
  1900 ;;		On entry : 0/0
  1901 ;;		On exit  : 0/0
  1902 ;;		Unchanged: 0/0
  1903 ;; Data sizes:     COMMON   BANK0   BANK1   BANK3   BANK2
  1904 ;;      Params:         0       0       0       0       0
  1905 ;;      Locals:         0       1       0       0       0
  1906 ;;      Temps:          0       2       0       0       0
  1907 ;;      Totals:         0       3       0       0       0
  1908 ;;Total ram usage:        3 bytes
  1909 ;; Hardware stack levels used: 1
  1910 ;; Hardware stack levels required when called: 3
  1911 ;; This function calls:
  1912 ;;		_clcd_print
  1913 ;;		_clcd_putch
  1914 ;;		_clear_screen
  1915 ;; This function is called by:
  1916 ;;		_main
  1917 ;; This function uses a non-reentrant model
  1918 ;;
  1919                           
  1920     0BA8                     _water_level_display:	
  1921                           ;psect for function _water_level_display
  1922                           
  1923                           
  1924                           ;incstack = 0
  1925                           ; Regs used in _water_level_display: [wreg-fsr0h+status,2+status,0+btemp+1+pclath+cstack
      +                          ]
  1926                           ;water_level_display@key stored from wreg
  1927     0BA8  1283               	bcf	3,5	;RP0=0, select bank0
  1928     0BA9  1303               	bcf	3,6	;RP1=0, select bank0
  1929     0BAA  00A4               	movwf	water_level_display@key
  1930     0BAB                     l3404:
  1931                           
  1932                           ;main.c: 199: ;main.c: 200: ;main.c: 201:      clcd_print("Water Level:", (0x80 + 0));
  1933     0BAB  3011               	movlw	17
  1934     0BAC  066D               	xorwf	_reset_mode,w
  1935     0BAD  1D03               	btfss	3,2
  1936     0BAE  2BB0               	goto	u4441
  1937     0BAF  2BB1               	goto	u4440
  1938     0BB0                     u4441:
  1939     0BB0  2BB7               	goto	l3410
  1940     0BB1                     u4440:
  1941     0BB1                     l3406:
  1942                           
  1943                           ;main.c: 202:      clcd_putch('*', (0xC0 + 0));;main.c: 203: 
  1944     0BB1  01FA               	clrf	_water_level_index
  1945     0BB2                     l3408:
  1946                           
  1947                           ;main.c: 204: 
  1948     0BB2  160A  118A  2528  120A  158A  	fcall	_clear_screen
  1949     0BB7                     l3410:
  1950                           
  1951                           ;main.c: 206: 
  1952     0BB7  3037               	movlw	55
  1953     0BB8  1283               	bcf	3,5	;RP0=0, select bank0
  1954     0BB9  1303               	bcf	3,6	;RP1=0, select bank0
  1955     0BBA  0624               	xorwf	water_level_display@key,w
  1956     0BBB  1D03               	btfss	3,2
  1957     0BBC  2BBE               	goto	u4451
  1958     0BBD  2BBF               	goto	u4450
  1959     0BBE                     u4451:
  1960     0BBE  2BCF               	goto	l3420
  1961     0BBF                     u4450:
  1962     0BBF                     l3412:
  1963                           
  1964                           ;main.c: 207: ;main.c: 208: 
  1965     0BBF  3001               	movlw	1
  1966     0BC0  00FF               	movwf	btemp+1
  1967     0BC1  087F               	movf	btemp+1,w
  1968     0BC2  07FA               	addwf	_water_level_index,f
  1969     0BC3                     l3414:
  1970                           
  1971                           ;main.c: 209: 
  1972     0BC3  3005               	movlw	5
  1973     0BC4  067A               	xorwf	_water_level_index,w
  1974     0BC5  1D03               	btfss	3,2
  1975     0BC6  2BC8               	goto	u4461
  1976     0BC7  2BC9               	goto	u4460
  1977     0BC8                     u4461:
  1978     0BC8  2BCA               	goto	l3418
  1979     0BC9                     u4460:
  1980     0BC9                     l3416:
  1981                           
  1982                           ;main.c: 210:      if (water_level_index <= 2);main.c: 211:      {
  1983     0BC9  01FA               	clrf	_water_level_index
  1984     0BCA                     l3418:
  1985                           
  1986                           ;main.c: 213:          clcd_print(water_level_option[water_level_index + 1], (0x90 + 2))
      +                          ;
  1987     0BCA  160A  118A  2528  120A  158A  	fcall	_clear_screen
  1988     0BCF                     l3420:
  1989                           
  1990                           ;main.c: 218:          clcd_print(water_level_option[water_level_index], (0xC0 + 2));
  1991     0BCF  305D               	movlw	low (STR_27| (0+32768))
  1992     0BD0  00F6               	movwf	clcd_print@str
  1993     0BD1  3090               	movlw	high (STR_27| (0+32768))
  1994     0BD2  00F7               	movwf	clcd_print@str+1
  1995     0BD3  3080               	movlw	128
  1996     0BD4  00F8               	movwf	clcd_print@addr
  1997     0BD5  160A  118A  2615  120A  158A  	fcall	_clcd_print
  1998     0BDA                     l3422:
  1999                           
  2000                           ;main.c: 219:          clcd_print(water_level_option[water_level_index + 1], (0x90 + 2))
      +                          ;
  2001     0BDA  30C0               	movlw	192
  2002     0BDB  1283               	bcf	3,5	;RP0=0, select bank0
  2003     0BDC  1303               	bcf	3,6	;RP1=0, select bank0
  2004     0BDD  00A0               	movwf	clcd_putch@addr
  2005     0BDE  302A               	movlw	42
  2006     0BDF  120A  118A  27E8  120A  158A  	fcall	_clcd_putch
  2007     0BE4                     l3424:
  2008                           
  2009                           ;main.c: 227:      }
  2010     0BE4  3003               	movlw	3
  2011     0BE5  027A               	subwf	_water_level_index,w
  2012     0BE6  1803               	skipnc
  2013     0BE7  2BE9               	goto	u4471
  2014     0BE8  2BEA               	goto	u4470
  2015     0BE9                     u4471:
  2016     0BE9  2C2A               	goto	l3428
  2017     0BEA                     u4470:
  2018     0BEA                     l3426:
  2019                           
  2020                           ;main.c: 228: ;main.c: 229: }
  2021     0BEA  087A               	movf	_water_level_index,w
  2022     0BEB  1283               	bcf	3,5	;RP0=0, select bank0
  2023     0BEC  1303               	bcf	3,6	;RP1=0, select bank0
  2024     0BED  00A2               	movwf	??_water_level_display
  2025     0BEE  0722               	addwf	??_water_level_display,w
  2026     0BEF  3EB8               	addlw	(low (_water_level_option| 0))& (0+255)
  2027     0BF0  0084               	movwf	4
  2028     0BF1  1383               	bcf	3,7	;select IRP bank1
  2029     0BF2  0800               	movf	0,w
  2030     0BF3  00F6               	movwf	clcd_print@str
  2031     0BF4  0A84               	incf	4,f
  2032     0BF5  0800               	movf	0,w
  2033     0BF6  0384               	decf	4,f
  2034     0BF7  00F7               	movwf	clcd_print@str+1
  2035     0BF8  30C2               	movlw	194
  2036     0BF9  00F8               	movwf	clcd_print@addr
  2037     0BFA  160A  118A  2615  120A  158A  	fcall	_clcd_print
  2038                           
  2039                           ;main.c: 230: 
  2040     0BFF  087A               	movf	_water_level_index,w
  2041     0C00  1283               	bcf	3,5	;RP0=0, select bank0
  2042     0C01  1303               	bcf	3,6	;RP1=0, select bank0
  2043     0C02  00A2               	movwf	??_water_level_display
  2044     0C03  0722               	addwf	??_water_level_display,w
  2045     0C04  3EBA               	addlw	(low ((_water_level_option| 0+2)))& (0+255)
  2046     0C05  0084               	movwf	4
  2047     0C06  1383               	bcf	3,7	;select IRP bank1
  2048     0C07  0800               	movf	0,w
  2049     0C08  00F6               	movwf	clcd_print@str
  2050     0C09  0A84               	incf	4,f
  2051     0C0A  0800               	movf	0,w
  2052     0C0B  0384               	decf	4,f
  2053     0C0C  00F7               	movwf	clcd_print@str+1
  2054     0C0D  3092               	movlw	146
  2055     0C0E  00F8               	movwf	clcd_print@addr
  2056     0C0F  160A  118A  2615  120A  158A  	fcall	_clcd_print
  2057                           
  2058                           ;main.c: 231: void set_time(void)
  2059     0C14  087A               	movf	_water_level_index,w
  2060     0C15  1283               	bcf	3,5	;RP0=0, select bank0
  2061     0C16  1303               	bcf	3,6	;RP1=0, select bank0
  2062     0C17  00A2               	movwf	??_water_level_display
  2063     0C18  0722               	addwf	??_water_level_display,w
  2064     0C19  3EBC               	addlw	(low ((_water_level_option| 0+4)))& (0+255)
  2065     0C1A  0084               	movwf	4
  2066     0C1B  1383               	bcf	3,7	;select IRP bank1
  2067     0C1C  0800               	movf	0,w
  2068     0C1D  00F6               	movwf	clcd_print@str
  2069     0C1E  0A84               	incf	4,f
  2070     0C1F  0800               	movf	0,w
  2071     0C20  0384               	decf	4,f
  2072     0C21  00F7               	movwf	clcd_print@str+1
  2073     0C22  30D2               	movlw	210
  2074     0C23  00F8               	movwf	clcd_print@addr
  2075     0C24  160A  118A  2615  120A  158A  	fcall	_clcd_print
  2076                           
  2077                           ;main.c: 232: {
  2078     0C29  2C9D               	goto	l128
  2079     0C2A                     l3428:
  2080     0C2A  3003               	movlw	3
  2081     0C2B  067A               	xorwf	_water_level_index,w
  2082     0C2C  1D03               	btfss	3,2
  2083     0C2D  2C2F               	goto	u4481
  2084     0C2E  2C30               	goto	u4480
  2085     0C2F                     u4481:
  2086     0C2F  2C68               	goto	l3432
  2087     0C30                     u4480:
  2088     0C30                     l3430:
  2089                           
  2090                           ;main.c: 234:     {;main.c: 235: 
  2091     0C30  087A               	movf	_water_level_index,w
  2092     0C31  1283               	bcf	3,5	;RP0=0, select bank0
  2093     0C32  1303               	bcf	3,6	;RP1=0, select bank0
  2094     0C33  00A2               	movwf	??_water_level_display
  2095     0C34  0722               	addwf	??_water_level_display,w
  2096     0C35  3EB8               	addlw	(low (_water_level_option| 0))& (0+255)
  2097     0C36  0084               	movwf	4
  2098     0C37  1383               	bcf	3,7	;select IRP bank1
  2099     0C38  0800               	movf	0,w
  2100     0C39  00F6               	movwf	clcd_print@str
  2101     0C3A  0A84               	incf	4,f
  2102     0C3B  0800               	movf	0,w
  2103     0C3C  0384               	decf	4,f
  2104     0C3D  00F7               	movwf	clcd_print@str+1
  2105     0C3E  30C2               	movlw	194
  2106     0C3F  00F8               	movwf	clcd_print@addr
  2107     0C40  160A  118A  2615  120A  158A  	fcall	_clcd_print
  2108                           
  2109                           ;main.c: 236:         case 0:
  2110     0C45  087A               	movf	_water_level_index,w
  2111     0C46  1283               	bcf	3,5	;RP0=0, select bank0
  2112     0C47  1303               	bcf	3,6	;RP1=0, select bank0
  2113     0C48  00A2               	movwf	??_water_level_display
  2114     0C49  0722               	addwf	??_water_level_display,w
  2115     0C4A  3EBA               	addlw	(low ((_water_level_option| 0+2)))& (0+255)
  2116     0C4B  0084               	movwf	4
  2117     0C4C  1383               	bcf	3,7	;select IRP bank1
  2118     0C4D  0800               	movf	0,w
  2119     0C4E  00F6               	movwf	clcd_print@str
  2120     0C4F  0A84               	incf	4,f
  2121     0C50  0800               	movf	0,w
  2122     0C51  0384               	decf	4,f
  2123     0C52  00F7               	movwf	clcd_print@str+1
  2124     0C53  3092               	movlw	146
  2125     0C54  00F8               	movwf	clcd_print@addr
  2126     0C55  160A  118A  2615  120A  158A  	fcall	_clcd_print
  2127                           
  2128                           ;main.c: 237:           switch(water_level_index)
  2129     0C5A  1683               	bsf	3,5	;RP0=1, select bank1
  2130     0C5B  1303               	bcf	3,6	;RP1=0, select bank1
  2131     0C5C  0838               	movf	_water_level_option^(0+128),w
  2132     0C5D  00F6               	movwf	clcd_print@str
  2133     0C5E  0839               	movf	(_water_level_option+1)^(0+128),w
  2134     0C5F  00F7               	movwf	clcd_print@str+1
  2135     0C60  30D2               	movlw	210
  2136     0C61  00F8               	movwf	clcd_print@addr
  2137     0C62  160A  118A  2615  120A  158A  	fcall	_clcd_print
  2138                           
  2139                           ;main.c: 238:           {
  2140     0C67  2C9D               	goto	l128
  2141     0C68                     l3432:
  2142     0C68  3004               	movlw	4
  2143     0C69  067A               	xorwf	_water_level_index,w
  2144     0C6A  1D03               	btfss	3,2
  2145     0C6B  2C6D               	goto	u4491
  2146     0C6C  2C6E               	goto	u4490
  2147     0C6D                     u4491:
  2148     0C6D  2C9D               	goto	l128
  2149     0C6E                     u4490:
  2150     0C6E                     l3434:
  2151                           
  2152                           ;main.c: 240:               case 1:;main.c: 241:                   sec = 33;
  2153     0C6E  087A               	movf	_water_level_index,w
  2154     0C6F  1283               	bcf	3,5	;RP0=0, select bank0
  2155     0C70  1303               	bcf	3,6	;RP1=0, select bank0
  2156     0C71  00A2               	movwf	??_water_level_display
  2157     0C72  0722               	addwf	??_water_level_display,w
  2158     0C73  3EB8               	addlw	(low (_water_level_option| 0))& (0+255)
  2159     0C74  0084               	movwf	4
  2160     0C75  1383               	bcf	3,7	;select IRP bank1
  2161     0C76  0800               	movf	0,w
  2162     0C77  00F6               	movwf	clcd_print@str
  2163     0C78  0A84               	incf	4,f
  2164     0C79  0800               	movf	0,w
  2165     0C7A  0384               	decf	4,f
  2166     0C7B  00F7               	movwf	clcd_print@str+1
  2167     0C7C  30C2               	movlw	194
  2168     0C7D  00F8               	movwf	clcd_print@addr
  2169     0C7E  160A  118A  2615  120A  158A  	fcall	_clcd_print
  2170                           
  2171                           ;main.c: 242:                   min = 0;
  2172     0C83  1683               	bsf	3,5	;RP0=1, select bank1
  2173     0C84  1303               	bcf	3,6	;RP1=0, select bank1
  2174     0C85  0838               	movf	_water_level_option^(0+128),w
  2175     0C86  00F6               	movwf	clcd_print@str
  2176     0C87  0839               	movf	(_water_level_option+1)^(0+128),w
  2177     0C88  00F7               	movwf	clcd_print@str+1
  2178     0C89  3092               	movlw	146
  2179     0C8A  00F8               	movwf	clcd_print@addr
  2180     0C8B  160A  118A  2615  120A  158A  	fcall	_clcd_print
  2181                           
  2182                           ;main.c: 243:                   break;
  2183     0C90  1683               	bsf	3,5	;RP0=1, select bank1
  2184     0C91  1303               	bcf	3,6	;RP1=0, select bank1
  2185     0C92  083A               	movf	(low ((_water_level_option| 0+2)))^(0+128),w
  2186     0C93  00F6               	movwf	clcd_print@str
  2187     0C94  083B               	movf	((low ((_water_level_option| 0+2))+1))^(0+128),w
  2188     0C95  00F7               	movwf	clcd_print@str+1
  2189     0C96  30D2               	movlw	210
  2190     0C97  00F8               	movwf	clcd_print@addr
  2191     0C98  160A  118A  2615  120A  158A  	fcall	_clcd_print
  2192     0C9D                     l128:
  2193     0C9D  0008               	return
  2194     0C9E                     __end_of_water_level_display:
  2195                           
  2196                           	psect	text2
  2197     0AB2                     __ptext2:	
  2198 ;; *************** function _washing_program_display *****************
  2199 ;; Defined at:
  2200 ;;		line 148 in file "main.c"
  2201 ;; Parameters:    Size  Location     Type
  2202 ;;  key             1    wreg     unsigned char 
  2203 ;; Auto vars:     Size  Location     Type
  2204 ;;  key             1    4[BANK0 ] unsigned char 
  2205 ;; Return value:  Size  Location     Type
  2206 ;;                  1    wreg      void 
  2207 ;; Registers used:
  2208 ;;		wreg, fsr0l, fsr0h, status,2, status,0, btemp+1, pclath, cstack
  2209 ;; Tracked objects:
  2210 ;;		On entry : 0/0
  2211 ;;		On exit  : 0/0
  2212 ;;		Unchanged: 0/0
  2213 ;; Data sizes:     COMMON   BANK0   BANK1   BANK3   BANK2
  2214 ;;      Params:         0       0       0       0       0
  2215 ;;      Locals:         0       1       0       0       0
  2216 ;;      Temps:          0       2       0       0       0
  2217 ;;      Totals:         0       3       0       0       0
  2218 ;;Total ram usage:        3 bytes
  2219 ;; Hardware stack levels used: 1
  2220 ;; Hardware stack levels required when called: 3
  2221 ;; This function calls:
  2222 ;;		_clcd_print
  2223 ;;		_clcd_putch
  2224 ;;		_clear_screen
  2225 ;; This function is called by:
  2226 ;;		_main
  2227 ;; This function uses a non-reentrant model
  2228 ;;
  2229                           
  2230     0AB2                     _washing_program_display:	
  2231                           ;psect for function _washing_program_display
  2232                           
  2233                           
  2234                           ;incstack = 0
  2235                           ; Regs used in _washing_program_display: [wreg-fsr0h+status,2+status,0+btemp+1+pclath+cs
      +                          tack]
  2236                           ;washing_program_display@key stored from wreg
  2237     0AB2  1283               	bcf	3,5	;RP0=0, select bank0
  2238     0AB3  1303               	bcf	3,6	;RP1=0, select bank0
  2239     0AB4  00A4               	movwf	washing_program_display@key
  2240     0AB5                     l3372:
  2241                           
  2242                           ;main.c: 148:             program_no =0;;main.c: 149:         };main.c: 151: 
  2243     0AB5  3010               	movlw	16
  2244     0AB6  066D               	xorwf	_reset_mode,w
  2245     0AB7  1D03               	btfss	3,2
  2246     0AB8  2ABA               	goto	u4381
  2247     0AB9  2ABB               	goto	u4380
  2248     0ABA                     u4381:
  2249     0ABA  2AC1               	goto	l3378
  2250     0ABB                     u4380:
  2251     0ABB                     l3374:
  2252                           
  2253                           ;main.c: 152:     clcd_print("Washing_Program", (0x80 + 0));;main.c: 153:     clcd_putch
      +                          ('*', (0xC0 + 0));
  2254     0ABB  160A  118A  2528  120A  158A  	fcall	_clear_screen
  2255     0AC0                     l3376:
  2256                           
  2257                           ;main.c: 154: 
  2258     0AC0  01FB               	clrf	_program_no
  2259     0AC1                     l3378:
  2260                           
  2261                           ;main.c: 159:      {
  2262     0AC1  3037               	movlw	55
  2263     0AC2  1283               	bcf	3,5	;RP0=0, select bank0
  2264     0AC3  1303               	bcf	3,6	;RP1=0, select bank0
  2265     0AC4  0624               	xorwf	washing_program_display@key,w
  2266     0AC5  1D03               	btfss	3,2
  2267     0AC6  2AC8               	goto	u4391
  2268     0AC7  2AC9               	goto	u4390
  2269     0AC8                     u4391:
  2270     0AC8  2AD9               	goto	l3388
  2271     0AC9                     u4390:
  2272     0AC9                     l3380:
  2273                           
  2274                           ;main.c: 160:        clcd_print( washing_prog[program_no], (0xC0 + 2));;main.c: 161:    
      +                              clcd_print( washing_prog[program_no + 1], (0x90 + 2));
  2275     0AC9  3001               	movlw	1
  2276     0ACA  00FF               	movwf	btemp+1
  2277     0ACB  087F               	movf	btemp+1,w
  2278     0ACC  07FB               	addwf	_program_no,f
  2279     0ACD                     l3382:
  2280                           
  2281                           ;main.c: 162:        clcd_print( washing_prog[program_no + 2], (0xD0 + 2));
  2282     0ACD  160A  118A  2528  120A  158A  	fcall	_clear_screen
  2283     0AD2                     l3384:
  2284                           
  2285                           ;main.c: 163:      }
  2286     0AD2  300C               	movlw	12
  2287     0AD3  067B               	xorwf	_program_no,w
  2288     0AD4  1D03               	btfss	3,2
  2289     0AD5  2AD7               	goto	u4401
  2290     0AD6  2AD8               	goto	u4400
  2291     0AD7                     u4401:
  2292     0AD7  2AD9               	goto	l3388
  2293     0AD8                     u4400:
  2294     0AD8                     l3386:
  2295                           
  2296                           ;main.c: 164: ;main.c: 165:      else if (program_no == 10)
  2297     0AD8  01FB               	clrf	_program_no
  2298     0AD9                     l3388:
  2299                           
  2300                           ;main.c: 169:         clcd_print( washing_prog[0], (0xD0 + 2));
  2301     0AD9  3021               	movlw	low (STR_26| (0+32768))
  2302     0ADA  00F6               	movwf	clcd_print@str
  2303     0ADB  3090               	movlw	high (STR_26| (0+32768))
  2304     0ADC  00F7               	movwf	clcd_print@str+1
  2305     0ADD  3080               	movlw	128
  2306     0ADE  00F8               	movwf	clcd_print@addr
  2307     0ADF  160A  118A  2615  120A  158A  	fcall	_clcd_print
  2308     0AE4                     l3390:
  2309                           
  2310                           ;main.c: 170:      }
  2311     0AE4  30C0               	movlw	192
  2312     0AE5  1283               	bcf	3,5	;RP0=0, select bank0
  2313     0AE6  1303               	bcf	3,6	;RP1=0, select bank0
  2314     0AE7  00A0               	movwf	clcd_putch@addr
  2315     0AE8  302A               	movlw	42
  2316     0AE9  120A  118A  27E8  120A  158A  	fcall	_clcd_putch
  2317     0AEE                     l3392:
  2318                           
  2319                           ;main.c: 175:         clcd_print( washing_prog[0], (0x90 + 2));
  2320     0AEE  300A               	movlw	10
  2321     0AEF  027B               	subwf	_program_no,w
  2322     0AF0  1803               	skipnc
  2323     0AF1  2AF3               	goto	u4411
  2324     0AF2  2AF4               	goto	u4410
  2325     0AF3                     u4411:
  2326     0AF3  2B34               	goto	l3396
  2327     0AF4                     u4410:
  2328     0AF4                     l3394:
  2329                           
  2330                           ;main.c: 176:         clcd_print( washing_prog[1], (0xD0 + 2));;main.c: 177:      }
  2331     0AF4  087B               	movf	_program_no,w
  2332     0AF5  1283               	bcf	3,5	;RP0=0, select bank0
  2333     0AF6  1303               	bcf	3,6	;RP1=0, select bank0
  2334     0AF7  00A2               	movwf	??_washing_program_display
  2335     0AF8  0722               	addwf	??_washing_program_display,w
  2336     0AF9  3EA0               	addlw	(low (_washing_prog| 0))& (0+255)
  2337     0AFA  0084               	movwf	4
  2338     0AFB  1383               	bcf	3,7	;select IRP bank1
  2339     0AFC  0800               	movf	0,w
  2340     0AFD  00F6               	movwf	clcd_print@str
  2341     0AFE  0A84               	incf	4,f
  2342     0AFF  0800               	movf	0,w
  2343     0B00  0384               	decf	4,f
  2344     0B01  00F7               	movwf	clcd_print@str+1
  2345     0B02  30C2               	movlw	194
  2346     0B03  00F8               	movwf	clcd_print@addr
  2347     0B04  160A  118A  2615  120A  158A  	fcall	_clcd_print
  2348                           
  2349                           ;main.c: 178: 
  2350     0B09  087B               	movf	_program_no,w
  2351     0B0A  1283               	bcf	3,5	;RP0=0, select bank0
  2352     0B0B  1303               	bcf	3,6	;RP1=0, select bank0
  2353     0B0C  00A2               	movwf	??_washing_program_display
  2354     0B0D  0722               	addwf	??_washing_program_display,w
  2355     0B0E  3EA2               	addlw	(low ((_washing_prog| 0+2)))& (0+255)
  2356     0B0F  0084               	movwf	4
  2357     0B10  1383               	bcf	3,7	;select IRP bank1
  2358     0B11  0800               	movf	0,w
  2359     0B12  00F6               	movwf	clcd_print@str
  2360     0B13  0A84               	incf	4,f
  2361     0B14  0800               	movf	0,w
  2362     0B15  0384               	decf	4,f
  2363     0B16  00F7               	movwf	clcd_print@str+1
  2364     0B17  3092               	movlw	146
  2365     0B18  00F8               	movwf	clcd_print@addr
  2366     0B19  160A  118A  2615  120A  158A  	fcall	_clcd_print
  2367                           
  2368                           ;main.c: 179: 
  2369     0B1E  087B               	movf	_program_no,w
  2370     0B1F  1283               	bcf	3,5	;RP0=0, select bank0
  2371     0B20  1303               	bcf	3,6	;RP1=0, select bank0
  2372     0B21  00A2               	movwf	??_washing_program_display
  2373     0B22  0722               	addwf	??_washing_program_display,w
  2374     0B23  3EA4               	addlw	(low ((_washing_prog| 0+4)))& (0+255)
  2375     0B24  0084               	movwf	4
  2376     0B25  1383               	bcf	3,7	;select IRP bank1
  2377     0B26  0800               	movf	0,w
  2378     0B27  00F6               	movwf	clcd_print@str
  2379     0B28  0A84               	incf	4,f
  2380     0B29  0800               	movf	0,w
  2381     0B2A  0384               	decf	4,f
  2382     0B2B  00F7               	movwf	clcd_print@str+1
  2383     0B2C  30D2               	movlw	210
  2384     0B2D  00F8               	movwf	clcd_print@addr
  2385     0B2E  160A  118A  2615  120A  158A  	fcall	_clcd_print
  2386                           
  2387                           ;main.c: 180: }
  2388     0B33  2BA7               	goto	l117
  2389     0B34                     l3396:
  2390     0B34  300A               	movlw	10
  2391     0B35  067B               	xorwf	_program_no,w
  2392     0B36  1D03               	btfss	3,2
  2393     0B37  2B39               	goto	u4421
  2394     0B38  2B3A               	goto	u4420
  2395     0B39                     u4421:
  2396     0B39  2B72               	goto	l3400
  2397     0B3A                     u4420:
  2398     0B3A                     l3398:
  2399                           
  2400                           ;main.c: 183: {;main.c: 184:      if(reset_mode == 0x11 )
  2401     0B3A  087B               	movf	_program_no,w
  2402     0B3B  1283               	bcf	3,5	;RP0=0, select bank0
  2403     0B3C  1303               	bcf	3,6	;RP1=0, select bank0
  2404     0B3D  00A2               	movwf	??_washing_program_display
  2405     0B3E  0722               	addwf	??_washing_program_display,w
  2406     0B3F  3EA0               	addlw	(low (_washing_prog| 0))& (0+255)
  2407     0B40  0084               	movwf	4
  2408     0B41  1383               	bcf	3,7	;select IRP bank1
  2409     0B42  0800               	movf	0,w
  2410     0B43  00F6               	movwf	clcd_print@str
  2411     0B44  0A84               	incf	4,f
  2412     0B45  0800               	movf	0,w
  2413     0B46  0384               	decf	4,f
  2414     0B47  00F7               	movwf	clcd_print@str+1
  2415     0B48  30C2               	movlw	194
  2416     0B49  00F8               	movwf	clcd_print@addr
  2417     0B4A  160A  118A  2615  120A  158A  	fcall	_clcd_print
  2418                           
  2419                           ;main.c: 185:      {
  2420     0B4F  087B               	movf	_program_no,w
  2421     0B50  1283               	bcf	3,5	;RP0=0, select bank0
  2422     0B51  1303               	bcf	3,6	;RP1=0, select bank0
  2423     0B52  00A2               	movwf	??_washing_program_display
  2424     0B53  0722               	addwf	??_washing_program_display,w
  2425     0B54  3EA2               	addlw	(low ((_washing_prog| 0+2)))& (0+255)
  2426     0B55  0084               	movwf	4
  2427     0B56  1383               	bcf	3,7	;select IRP bank1
  2428     0B57  0800               	movf	0,w
  2429     0B58  00F6               	movwf	clcd_print@str
  2430     0B59  0A84               	incf	4,f
  2431     0B5A  0800               	movf	0,w
  2432     0B5B  0384               	decf	4,f
  2433     0B5C  00F7               	movwf	clcd_print@str+1
  2434     0B5D  3092               	movlw	146
  2435     0B5E  00F8               	movwf	clcd_print@addr
  2436     0B5F  160A  118A  2615  120A  158A  	fcall	_clcd_print
  2437                           
  2438                           ;main.c: 186:          water_level_index = 0;
  2439     0B64  1683               	bsf	3,5	;RP0=1, select bank1
  2440     0B65  1303               	bcf	3,6	;RP1=0, select bank1
  2441     0B66  0820               	movf	_washing_prog^(0+128),w
  2442     0B67  00F6               	movwf	clcd_print@str
  2443     0B68  0821               	movf	(_washing_prog+1)^(0+128),w
  2444     0B69  00F7               	movwf	clcd_print@str+1
  2445     0B6A  30D2               	movlw	210
  2446     0B6B  00F8               	movwf	clcd_print@addr
  2447     0B6C  160A  118A  2615  120A  158A  	fcall	_clcd_print
  2448                           
  2449                           ;main.c: 187:          clear_screen();
  2450     0B71  2BA7               	goto	l117
  2451     0B72                     l3400:
  2452     0B72  300B               	movlw	11
  2453     0B73  067B               	xorwf	_program_no,w
  2454     0B74  1D03               	btfss	3,2
  2455     0B75  2B77               	goto	u4431
  2456     0B76  2B78               	goto	u4430
  2457     0B77                     u4431:
  2458     0B77  2BA7               	goto	l117
  2459     0B78                     u4430:
  2460     0B78                     l3402:
  2461                           
  2462                           ;main.c: 190:      {;main.c: 191:        water_level_index++ ;
  2463     0B78  087B               	movf	_program_no,w
  2464     0B79  1283               	bcf	3,5	;RP0=0, select bank0
  2465     0B7A  1303               	bcf	3,6	;RP1=0, select bank0
  2466     0B7B  00A2               	movwf	??_washing_program_display
  2467     0B7C  0722               	addwf	??_washing_program_display,w
  2468     0B7D  3EA0               	addlw	(low (_washing_prog| 0))& (0+255)
  2469     0B7E  0084               	movwf	4
  2470     0B7F  1383               	bcf	3,7	;select IRP bank1
  2471     0B80  0800               	movf	0,w
  2472     0B81  00F6               	movwf	clcd_print@str
  2473     0B82  0A84               	incf	4,f
  2474     0B83  0800               	movf	0,w
  2475     0B84  0384               	decf	4,f
  2476     0B85  00F7               	movwf	clcd_print@str+1
  2477     0B86  30C2               	movlw	194
  2478     0B87  00F8               	movwf	clcd_print@addr
  2479     0B88  160A  118A  2615  120A  158A  	fcall	_clcd_print
  2480                           
  2481                           ;main.c: 192:                  if ( water_level_index == 5)
  2482     0B8D  1683               	bsf	3,5	;RP0=1, select bank1
  2483     0B8E  1303               	bcf	3,6	;RP1=0, select bank1
  2484     0B8F  0820               	movf	_washing_prog^(0+128),w
  2485     0B90  00F6               	movwf	clcd_print@str
  2486     0B91  0821               	movf	(_washing_prog+1)^(0+128),w
  2487     0B92  00F7               	movwf	clcd_print@str+1
  2488     0B93  3092               	movlw	146
  2489     0B94  00F8               	movwf	clcd_print@addr
  2490     0B95  160A  118A  2615  120A  158A  	fcall	_clcd_print
  2491                           
  2492                           ;main.c: 193:                  {
  2493     0B9A  1683               	bsf	3,5	;RP0=1, select bank1
  2494     0B9B  1303               	bcf	3,6	;RP1=0, select bank1
  2495     0B9C  0822               	movf	(low ((_washing_prog| 0+2)))^(0+128),w
  2496     0B9D  00F6               	movwf	clcd_print@str
  2497     0B9E  0823               	movf	((low ((_washing_prog| 0+2))+1))^(0+128),w
  2498     0B9F  00F7               	movwf	clcd_print@str+1
  2499     0BA0  30D2               	movlw	210
  2500     0BA1  00F8               	movwf	clcd_print@addr
  2501     0BA2  160A  118A  2615  120A  158A  	fcall	_clcd_print
  2502     0BA7                     l117:
  2503     0BA7  0008               	return
  2504     0BA8                     __end_of_washing_program_display:
  2505                           
  2506                           	psect	text3
  2507     09BE                     __ptext3:	
  2508 ;; *************** function _set_time *****************
  2509 ;; Defined at:
  2510 ;;		line 248 in file "main.c"
  2511 ;; Parameters:    Size  Location     Type
  2512 ;;		None
  2513 ;; Auto vars:     Size  Location     Type
  2514 ;;		None
  2515 ;; Return value:  Size  Location     Type
  2516 ;;                  1    wreg      void 
  2517 ;; Registers used:
  2518 ;;		wreg, fsr0l, fsr0h, status,2, status,0
  2519 ;; Tracked objects:
  2520 ;;		On entry : 0/0
  2521 ;;		On exit  : 0/0
  2522 ;;		Unchanged: 0/0
  2523 ;; Data sizes:     COMMON   BANK0   BANK1   BANK3   BANK2
  2524 ;;      Params:         0       0       0       0       0
  2525 ;;      Locals:         0       0       0       0       0
  2526 ;;      Temps:          0       0       0       0       0
  2527 ;;      Totals:         0       0       0       0       0
  2528 ;;Total ram usage:        0 bytes
  2529 ;; Hardware stack levels used: 1
  2530 ;; Hardware stack levels required when called: 1
  2531 ;; This function calls:
  2532 ;;		Nothing
  2533 ;; This function is called by:
  2534 ;;		_main
  2535 ;; This function uses a non-reentrant model
  2536 ;;
  2537                           
  2538     09BE                     _set_time:	
  2539                           ;psect for function _set_time
  2540                           
  2541     09BE                     l2716:	
  2542                           ;incstack = 0
  2543                           ; Regs used in _set_time: [wreg-fsr0h+status,2+status,0]
  2544                           
  2545                           
  2546                           ;main.c: 250: 
  2547     09BE  2A8B               	goto	l2828
  2548     09BF                     l2718:
  2549                           
  2550                           ;main.c: 258: 
  2551     09BF  3021               	movlw	33
  2552     09C0  1283               	bcf	3,5	;RP0=0, select bank0
  2553     09C1  1303               	bcf	3,6	;RP1=0, select bank0
  2554     09C2  00EA               	movwf	_sec
  2555     09C3                     l2720:
  2556                           
  2557                           ;main.c: 259:         case 1 :
  2558     09C3  01EB               	clrf	_min
  2559                           
  2560                           ;main.c: 260:             switch(water_level_index)
  2561     09C4  2AB1               	goto	l187
  2562     09C5                     l2722:
  2563                           
  2564                           ;main.c: 264:                   sec = 43;
  2565     09C5  3029               	movlw	41
  2566     09C6  1283               	bcf	3,5	;RP0=0, select bank0
  2567     09C7  1303               	bcf	3,6	;RP1=0, select bank0
  2568     09C8  00EA               	movwf	_sec
  2569     09C9  29C3               	goto	l2720
  2570     09CA                     l2726:
  2571                           
  2572                           ;main.c: 270:                   sec = 50;
  2573     09CA  302D               	movlw	45
  2574     09CB  1283               	bcf	3,5	;RP0=0, select bank0
  2575     09CC  1303               	bcf	3,6	;RP1=0, select bank0
  2576     09CD  00EA               	movwf	_sec
  2577     09CE  29C3               	goto	l2720
  2578     09CF                     l2732:
  2579     09CF  087A               	movf	_water_level_index,w
  2580                           
  2581                           ; Switch size 1, requested type "simple"
  2582                           ; Number of cases is 5, Range of values is 0 to 4
  2583                           ; switch strategies available:
  2584                           ; Name         Instructions Cycles
  2585                           ; simple_byte           16     9 (average)
  2586                           ; direct_byte           23     8 (fixed)
  2587                           ; jumptable            260     6 (fixed)
  2588                           ;	Chosen strategy is simple_byte
  2589     09D0  3A00               	xorlw	0	; case 0
  2590     09D1  1903               	skipnz
  2591     09D2  29C5               	goto	l2722
  2592     09D3  3A01               	xorlw	1	; case 1
  2593     09D4  1903               	skipnz
  2594     09D5  29BF               	goto	l2718
  2595     09D6  3A03               	xorlw	3	; case 2
  2596     09D7  1903               	skipnz
  2597     09D8  29C5               	goto	l2722
  2598     09D9  3A01               	xorlw	1	; case 3
  2599     09DA  1903               	skipnz
  2600     09DB  29CA               	goto	l2726
  2601     09DC  3A07               	xorlw	7	; case 4
  2602     09DD  1903               	skipnz
  2603     09DE  29CA               	goto	l2726
  2604     09DF  2AB1               	goto	l187
  2605     09E0                     l2734:
  2606                           
  2607                           ;main.c: 281:         case 2:
  2608     09E0  302B               	movlw	43
  2609     09E1  1283               	bcf	3,5	;RP0=0, select bank0
  2610     09E2  1303               	bcf	3,6	;RP1=0, select bank0
  2611     09E3  00EA               	movwf	_sec
  2612     09E4  29C3               	goto	l2720
  2613     09E5                     l2738:
  2614                           
  2615                           ;main.c: 287:               case 0:
  2616     09E5  3032               	movlw	50
  2617     09E6  1283               	bcf	3,5	;RP0=0, select bank0
  2618     09E7  1303               	bcf	3,6	;RP1=0, select bank0
  2619     09E8  00EA               	movwf	_sec
  2620     09E9  29C3               	goto	l2720
  2621     09EA                     l2742:
  2622                           
  2623                           ;main.c: 293:               case 3:
  2624     09EA  3039               	movlw	57
  2625     09EB  1283               	bcf	3,5	;RP0=0, select bank0
  2626     09EC  1303               	bcf	3,6	;RP1=0, select bank0
  2627     09ED  00EA               	movwf	_sec
  2628     09EE  29C3               	goto	l2720
  2629     09EF                     l2748:
  2630     09EF  087A               	movf	_water_level_index,w
  2631                           
  2632                           ; Switch size 1, requested type "simple"
  2633                           ; Number of cases is 5, Range of values is 0 to 4
  2634                           ; switch strategies available:
  2635                           ; Name         Instructions Cycles
  2636                           ; simple_byte           16     9 (average)
  2637                           ; direct_byte           23     8 (fixed)
  2638                           ; jumptable            260     6 (fixed)
  2639                           ;	Chosen strategy is simple_byte
  2640     09F0  3A00               	xorlw	0	; case 0
  2641     09F1  1903               	skipnz
  2642     09F2  29E5               	goto	l2738
  2643     09F3  3A01               	xorlw	1	; case 1
  2644     09F4  1903               	skipnz
  2645     09F5  29E0               	goto	l2734
  2646     09F6  3A03               	xorlw	3	; case 2
  2647     09F7  1903               	skipnz
  2648     09F8  29E5               	goto	l2738
  2649     09F9  3A01               	xorlw	1	; case 3
  2650     09FA  1903               	skipnz
  2651     09FB  29EA               	goto	l2742
  2652     09FC  3A07               	xorlw	7	; case 4
  2653     09FD  1903               	skipnz
  2654     09FE  29EA               	goto	l2742
  2655     09FF  2AB1               	goto	l187
  2656     0A00                     l2750:
  2657                           
  2658                           ;main.c: 306:             break;
  2659     0A00  301A               	movlw	26
  2660     0A01  1283               	bcf	3,5	;RP0=0, select bank0
  2661     0A02  1303               	bcf	3,6	;RP1=0, select bank0
  2662     0A03  00EA               	movwf	_sec
  2663     0A04  29C3               	goto	l2720
  2664     0A05                     l2754:
  2665                           
  2666                           ;main.c: 312:             break;
  2667     0A05  301F               	movlw	31
  2668     0A06  1283               	bcf	3,5	;RP0=0, select bank0
  2669     0A07  1303               	bcf	3,6	;RP1=0, select bank0
  2670     0A08  00EA               	movwf	_sec
  2671     0A09  29C3               	goto	l2720
  2672     0A0A                     l2760:
  2673     0A0A  087A               	movf	_water_level_index,w
  2674                           
  2675                           ; Switch size 1, requested type "simple"
  2676                           ; Number of cases is 5, Range of values is 0 to 4
  2677                           ; switch strategies available:
  2678                           ; Name         Instructions Cycles
  2679                           ; simple_byte           16     9 (average)
  2680                           ; direct_byte           23     8 (fixed)
  2681                           ; jumptable            260     6 (fixed)
  2682                           ;	Chosen strategy is simple_byte
  2683     0A0B  3A00               	xorlw	0	; case 0
  2684     0A0C  1903               	skipnz
  2685     0A0D  2A00               	goto	l2750
  2686     0A0E  3A01               	xorlw	1	; case 1
  2687     0A0F  1903               	skipnz
  2688     0A10  2A00               	goto	l2750
  2689     0A11  3A03               	xorlw	3	; case 2
  2690     0A12  1903               	skipnz
  2691     0A13  2A00               	goto	l2750
  2692     0A14  3A01               	xorlw	1	; case 3
  2693     0A15  1903               	skipnz
  2694     0A16  2A05               	goto	l2754
  2695     0A17  3A07               	xorlw	7	; case 4
  2696     0A18  1903               	skipnz
  2697     0A19  2A05               	goto	l2754
  2698     0A1A  2AB1               	goto	l187
  2699     0A1B                     l2762:
  2700                           
  2701                           ;main.c: 320:         case 6:;main.c: 321:         {
  2702     0A1B  3010               	movlw	16
  2703     0A1C  1283               	bcf	3,5	;RP0=0, select bank0
  2704     0A1D  1303               	bcf	3,6	;RP1=0, select bank0
  2705     0A1E  00EA               	movwf	_sec
  2706     0A1F                     l2764:
  2707                           
  2708                           ;main.c: 322:             sec = 29;
  2709     0A1F  01EB               	clrf	_min
  2710     0A20  0AEB               	incf	_min,f
  2711                           
  2712                           ;main.c: 323:             min = 0;
  2713     0A21  2AB1               	goto	l187
  2714     0A22                     l2766:
  2715                           
  2716                           ;main.c: 326:         case 7:;main.c: 327:         {
  2717     0A22  3024               	movlw	36
  2718     0A23  1283               	bcf	3,5	;RP0=0, select bank0
  2719     0A24  1303               	bcf	3,6	;RP1=0, select bank0
  2720     0A25  00EA               	movwf	_sec
  2721     0A26  2A1F               	goto	l2764
  2722     0A27                     l2770:
  2723                           
  2724                           ;main.c: 332:                   sec = 46;;main.c: 333:                   min = 0;
  2725     0A27  3024               	movlw	36
  2726     0A28  1283               	bcf	3,5	;RP0=0, select bank0
  2727     0A29  1303               	bcf	3,6	;RP1=0, select bank0
  2728     0A2A  00EA               	movwf	_sec
  2729     0A2B  29C3               	goto	l2720
  2730     0A2C                     l2774:
  2731                           
  2732                           ;main.c: 338:                   sec = 53;;main.c: 339:                   min = 0;
  2733     0A2C  301D               	movlw	29
  2734     0A2D  1283               	bcf	3,5	;RP0=0, select bank0
  2735     0A2E  1303               	bcf	3,6	;RP1=0, select bank0
  2736     0A2F  00EA               	movwf	_sec
  2737     0A30  29C3               	goto	l2720
  2738     0A31                     l2778:
  2739                           
  2740                           ;main.c: 349: 
  2741     0A31  302E               	movlw	46
  2742     0A32  1283               	bcf	3,5	;RP0=0, select bank0
  2743     0A33  1303               	bcf	3,6	;RP1=0, select bank0
  2744     0A34  00EA               	movwf	_sec
  2745     0A35  29C3               	goto	l2720
  2746     0A36                     l2782:
  2747                           
  2748                           ;main.c: 355:           {
  2749     0A36  3035               	movlw	53
  2750     0A37  1283               	bcf	3,5	;RP0=0, select bank0
  2751     0A38  1303               	bcf	3,6	;RP1=0, select bank0
  2752     0A39  00EA               	movwf	_sec
  2753     0A3A  29C3               	goto	l2720
  2754     0A3B                     l2786:
  2755                           
  2756                           ;main.c: 361: 
  2757     0A3B  1283               	bcf	3,5	;RP0=0, select bank0
  2758     0A3C  1303               	bcf	3,6	;RP1=0, select bank0
  2759     0A3D  01EA               	clrf	_sec
  2760     0A3E  2A1F               	goto	l2764
  2761     0A3F                     l2792:
  2762     0A3F  087A               	movf	_water_level_index,w
  2763                           
  2764                           ; Switch size 1, requested type "simple"
  2765                           ; Number of cases is 5, Range of values is 0 to 4
  2766                           ; switch strategies available:
  2767                           ; Name         Instructions Cycles
  2768                           ; simple_byte           16     9 (average)
  2769                           ; direct_byte           23     8 (fixed)
  2770                           ; jumptable            260     6 (fixed)
  2771                           ;	Chosen strategy is simple_byte
  2772     0A40  3A00               	xorlw	0	; case 0
  2773     0A41  1903               	skipnz
  2774     0A42  2A36               	goto	l2782
  2775     0A43  3A01               	xorlw	1	; case 1
  2776     0A44  1903               	skipnz
  2777     0A45  2A31               	goto	l2778
  2778     0A46  3A03               	xorlw	3	; case 2
  2779     0A47  1903               	skipnz
  2780     0A48  2A36               	goto	l2782
  2781     0A49  3A01               	xorlw	1	; case 3
  2782     0A4A  1903               	skipnz
  2783     0A4B  2A3B               	goto	l2786
  2784     0A4C  3A07               	xorlw	7	; case 4
  2785     0A4D  1903               	skipnz
  2786     0A4E  2A3B               	goto	l2786
  2787     0A4F  2AB1               	goto	l187
  2788     0A50                     l2794:
  2789                           
  2790                           ;main.c: 375:             min = 0;
  2791     0A50  3012               	movlw	18
  2792     0A51  1283               	bcf	3,5	;RP0=0, select bank0
  2793     0A52  1303               	bcf	3,6	;RP1=0, select bank0
  2794     0A53  00EA               	movwf	_sec
  2795     0A54  29C3               	goto	l2720
  2796     0A55                     l175:	
  2797                           ;main.c: 381: 
  2798                           
  2799     0A55                     l2798:
  2800                           
  2801                           ;main.c: 383:                   sec = 16;
  2802     0A55  3014               	movlw	20
  2803     0A56  1283               	bcf	3,5	;RP0=0, select bank0
  2804     0A57  1303               	bcf	3,6	;RP1=0, select bank0
  2805     0A58  00EA               	movwf	_sec
  2806     0A59  29C3               	goto	l2720
  2807     0A5A                     l2804:
  2808     0A5A  087A               	movf	_water_level_index,w
  2809                           
  2810                           ; Switch size 1, requested type "simple"
  2811                           ; Number of cases is 5, Range of values is 0 to 4
  2812                           ; switch strategies available:
  2813                           ; Name         Instructions Cycles
  2814                           ; simple_byte           16     9 (average)
  2815                           ; direct_byte           23     8 (fixed)
  2816                           ; jumptable            260     6 (fixed)
  2817                           ;	Chosen strategy is simple_byte
  2818     0A5B  3A00               	xorlw	0	; case 0
  2819     0A5C  1903               	skipnz
  2820     0A5D  2A55               	goto	l175
  2821     0A5E  3A01               	xorlw	1	; case 1
  2822     0A5F  1903               	skipnz
  2823     0A60  2A50               	goto	l2794
  2824     0A61  3A03               	xorlw	3	; case 2
  2825     0A62  1903               	skipnz
  2826     0A63  2A55               	goto	l2798
  2827     0A64  3A01               	xorlw	1	; case 3
  2828     0A65  1903               	skipnz
  2829     0A66  2A55               	goto	l2798
  2830     0A67  3A07               	xorlw	7	; case 4
  2831     0A68  1903               	skipnz
  2832     0A69  2A55               	goto	l2798
  2833     0A6A  2AB1               	goto	l187
  2834     0A6B                     l2806:
  2835                           
  2836                           ;main.c: 391:                   break;
  2837     0A6B  3006               	movlw	6
  2838     0A6C  1283               	bcf	3,5	;RP0=0, select bank0
  2839     0A6D  1303               	bcf	3,6	;RP1=0, select bank0
  2840     0A6E  00EA               	movwf	_sec
  2841     0A6F  29C3               	goto	l2720
  2842     0A70                     l2810:
  2843                           
  2844                           ;main.c: 400: 
  2845     0A70  3010               	movlw	16
  2846     0A71  1283               	bcf	3,5	;RP0=0, select bank0
  2847     0A72  1303               	bcf	3,6	;RP1=0, select bank0
  2848     0A73  00EA               	movwf	_sec
  2849     0A74  29C3               	goto	l2720
  2850     0A75                     l2814:
  2851                           
  2852                           ;main.c: 406:     door_status_check();
  2853     0A75  3015               	movlw	21
  2854     0A76  1283               	bcf	3,5	;RP0=0, select bank0
  2855     0A77  1303               	bcf	3,6	;RP1=0, select bank0
  2856     0A78  00EA               	movwf	_sec
  2857     0A79  29C3               	goto	l2720
  2858     0A7A                     l2824:
  2859     0A7A  087A               	movf	_water_level_index,w
  2860                           
  2861                           ; Switch size 1, requested type "simple"
  2862                           ; Number of cases is 5, Range of values is 0 to 4
  2863                           ; switch strategies available:
  2864                           ; Name         Instructions Cycles
  2865                           ; simple_byte           16     9 (average)
  2866                           ; direct_byte           23     8 (fixed)
  2867                           ; jumptable            260     6 (fixed)
  2868                           ;	Chosen strategy is simple_byte
  2869     0A7B  3A00               	xorlw	0	; case 0
  2870     0A7C  1903               	skipnz
  2871     0A7D  2A75               	goto	l2814
  2872     0A7E  3A01               	xorlw	1	; case 1
  2873     0A7F  1903               	skipnz
  2874     0A80  2A70               	goto	l2810
  2875     0A81  3A03               	xorlw	3	; case 2
  2876     0A82  1903               	skipnz
  2877     0A83  2A75               	goto	l2814
  2878     0A84  3A01               	xorlw	1	; case 3
  2879     0A85  1903               	skipnz
  2880     0A86  2A00               	goto	l2750
  2881     0A87  3A07               	xorlw	7	; case 4
  2882     0A88  1903               	skipnz
  2883     0A89  2A00               	goto	l2750
  2884     0A8A  2AB1               	goto	l187
  2885     0A8B                     l2828:
  2886     0A8B  087B               	movf	_program_no,w
  2887                           
  2888                           ; Switch size 1, requested type "simple"
  2889                           ; Number of cases is 12, Range of values is 0 to 11
  2890                           ; switch strategies available:
  2891                           ; Name         Instructions Cycles
  2892                           ; simple_byte           37    19 (average)
  2893                           ; direct_byte           44     8 (fixed)
  2894                           ; jumptable            260     6 (fixed)
  2895                           ;	Chosen strategy is simple_byte
  2896     0A8C  3A00               	xorlw	0	; case 0
  2897     0A8D  1903               	skipnz
  2898     0A8E  29CF               	goto	l2732
  2899     0A8F  3A01               	xorlw	1	; case 1
  2900     0A90  1903               	skipnz
  2901     0A91  29EF               	goto	l2748
  2902     0A92  3A03               	xorlw	3	; case 2
  2903     0A93  1903               	skipnz
  2904     0A94  2A0A               	goto	l2760
  2905     0A95  3A01               	xorlw	1	; case 3
  2906     0A96  1903               	skipnz
  2907     0A97  2A1B               	goto	l2762
  2908     0A98  3A07               	xorlw	7	; case 4
  2909     0A99  1903               	skipnz
  2910     0A9A  2A22               	goto	l2766
  2911     0A9B  3A01               	xorlw	1	; case 5
  2912     0A9C  1903               	skipnz
  2913     0A9D  2A27               	goto	l2770
  2914     0A9E  3A03               	xorlw	3	; case 6
  2915     0A9F  1903               	skipnz
  2916     0AA0  2A2C               	goto	l2774
  2917     0AA1  3A01               	xorlw	1	; case 7
  2918     0AA2  1903               	skipnz
  2919     0AA3  2A3F               	goto	l2792
  2920     0AA4  3A0F               	xorlw	15	; case 8
  2921     0AA5  1903               	skipnz
  2922     0AA6  2A5A               	goto	l2804
  2923     0AA7  3A01               	xorlw	1	; case 9
  2924     0AA8  1903               	skipnz
  2925     0AA9  2A6B               	goto	l2806
  2926     0AAA  3A03               	xorlw	3	; case 10
  2927     0AAB  1903               	skipnz
  2928     0AAC  2A7A               	goto	l2824
  2929     0AAD  3A01               	xorlw	1	; case 11
  2930     0AAE  1903               	skipnz
  2931     0AAF  2A7A               	goto	l2824
  2932     0AB0  2AB1               	goto	l187
  2933     0AB1                     l187:
  2934     0AB1  0008               	return
  2935     0AB2                     __end_of_set_time:
  2936                           
  2937                           	psect	text4
  2938     0044                     __ptext4:	
  2939 ;; *************** function _run_program *****************
  2940 ;; Defined at:
  2941 ;;		line 421 in file "main.c"
  2942 ;; Parameters:    Size  Location     Type
  2943 ;;  key             1    wreg     unsigned char 
  2944 ;; Auto vars:     Size  Location     Type
  2945 ;;  key             1   58[BANK0 ] unsigned char 
  2946 ;; Return value:  Size  Location     Type
  2947 ;;                  1    wreg      void 
  2948 ;; Registers used:
  2949 ;;		wreg, fsr0l, fsr0h, status,2, status,0, btemp+1, pclath, cstack
  2950 ;; Tracked objects:
  2951 ;;		On entry : 0/0
  2952 ;;		On exit  : 0/0
  2953 ;;		Unchanged: 0/0
  2954 ;; Data sizes:     COMMON   BANK0   BANK1   BANK3   BANK2
  2955 ;;      Params:         0       0       0       0       0
  2956 ;;      Locals:         0       1       0       0       0
  2957 ;;      Temps:          0       6       0       0       0
  2958 ;;      Totals:         0       7       0       0       0
  2959 ;;Total ram usage:        7 bytes
  2960 ;; Hardware stack levels used: 1
  2961 ;; Hardware stack levels required when called: 4
  2962 ;; This function calls:
  2963 ;;		___awdiv
  2964 ;;		___awmod
  2965 ;;		___flge
  2966 ;;		___flmul
  2967 ;;		___flsub
  2968 ;;		___fltol
  2969 ;;		___wmul
  2970 ;;		___xxtofl
  2971 ;;		_clcd_print
  2972 ;;		_clcd_putch
  2973 ;;		_clear_screen
  2974 ;;		_door_status_check
  2975 ;; This function is called by:
  2976 ;;		_main
  2977 ;; This function uses a non-reentrant model
  2978 ;;
  2979                           
  2980     0044                     _run_program:	
  2981                           ;psect for function _run_program
  2982                           
  2983                           
  2984                           ;incstack = 0
  2985                           ; Regs used in _run_program: [wreg-fsr0h+status,2+status,0+btemp+1+pclath+cstack]
  2986                           ;run_program@key stored from wreg
  2987     0044  1283               	bcf	3,5	;RP0=0, select bank0
  2988     0045  1303               	bcf	3,6	;RP1=0, select bank0
  2989     0046  00DA               	movwf	run_program@key
  2990     0047                     l3436:
  2991                           
  2992                           ;main.c: 421:         clcd_print("(MM:SS)", (0x90 + 5));;main.c: 422: ;main.c: 423:     
      +                              _delay((unsigned long)((2000)*(20000000/4000.0)));
  2993     0047  160A  118A  2697  120A  118A  	fcall	_door_status_check
  2994     004C                     l3438:
  2995                           
  2996                           ;main.c: 424: ;main.c: 425:         clear_screen();
  2997     004C  3012               	movlw	18
  2998     004D  1283               	bcf	3,5	;RP0=0, select bank0
  2999     004E  1303               	bcf	3,6	;RP1=0, select bank0
  3000     004F  066D               	xorwf	_reset_mode,w
  3001     0050  1D03               	btfss	3,2
  3002     0051  2853               	goto	u4501
  3003     0052  2854               	goto	u4500
  3004     0053                     u4501:
  3005     0053  29F0               	goto	l3480
  3006     0054                     u4500:
  3007     0054                     l3440:
  3008                           
  3009                           ;main.c: 426:         clcd_print("Function - ", (0x80 + 0));;main.c: 427:         clcd_p
      +                          rint("TIME: ", (0xC0 + 0));
  3010     0054  160A  118A  2528  120A  118A  	fcall	_clear_screen
  3011     0059                     l3442:
  3012                           
  3013                           ;main.c: 428:         clcd_print("5-START  6-PAUSE", (0xD0 + 0));
  3014     0059  3035               	movlw	low (STR_28| (0+32768))
  3015     005A  00F6               	movwf	clcd_print@str
  3016     005B  3091               	movlw	high (STR_28| (0+32768))
  3017     005C  00F7               	movwf	clcd_print@str+1
  3018     005D  3080               	movlw	128
  3019     005E  00F8               	movwf	clcd_print@addr
  3020     005F  160A  118A  2615  120A  118A  	fcall	_clcd_print
  3021     0064                     l3444:
  3022                           
  3023                           ;main.c: 429: 
  3024     0064  087B               	movf	_program_no,w
  3025     0065  1283               	bcf	3,5	;RP0=0, select bank0
  3026     0066  1303               	bcf	3,6	;RP1=0, select bank0
  3027     0067  00D4               	movwf	??_run_program
  3028     0068  0754               	addwf	??_run_program,w
  3029     0069  3EA0               	addlw	(low (_washing_prog| 0))& (0+255)
  3030     006A  0084               	movwf	4
  3031     006B  1383               	bcf	3,7	;select IRP bank1
  3032     006C  0800               	movf	0,w
  3033     006D  00F6               	movwf	clcd_print@str
  3034     006E  0A84               	incf	4,f
  3035     006F  0800               	movf	0,w
  3036     0070  0384               	decf	4,f
  3037     0071  00F7               	movwf	clcd_print@str+1
  3038     0072  3086               	movlw	134
  3039     0073  00F8               	movwf	clcd_print@addr
  3040     0074  160A  118A  2615  120A  118A  	fcall	_clcd_print
  3041     0079                     l3446:
  3042                           
  3043                           ;main.c: 430:         time = total_time = (min* 60 ) + sec;
  3044     0079  302E               	movlw	low (STR_29| (0+32768))
  3045     007A  00F6               	movwf	clcd_print@str
  3046     007B  3091               	movlw	high (STR_29| (0+32768))
  3047     007C  00F7               	movwf	clcd_print@str+1
  3048     007D  30C0               	movlw	192
  3049     007E  00F8               	movwf	clcd_print@addr
  3050     007F  160A  118A  2615  120A  118A  	fcall	_clcd_print
  3051     0084                     l3448:
  3052                           
  3053                           ;main.c: 433:         spin_time = total_time - wash_time - rinse_time;
  3054     0084  30C6               	movlw	198
  3055     0085  1283               	bcf	3,5	;RP0=0, select bank0
  3056     0086  1303               	bcf	3,6	;RP1=0, select bank0
  3057     0087  00A0               	movwf	clcd_putch@addr
  3058     0088  300A               	movlw	10
  3059     0089  00F2               	movwf	___awdiv@divisor
  3060     008A  3000               	movlw	0
  3061     008B  00F3               	movwf	___awdiv@divisor+1
  3062     008C  086B               	movf	_min,w
  3063     008D  00D4               	movwf	??_run_program
  3064     008E  01D5               	clrf	??_run_program+1
  3065     008F  0854               	movf	??_run_program,w
  3066     0090  00F4               	movwf	___awdiv@dividend
  3067     0091  0855               	movf	??_run_program+1,w
  3068     0092  00F5               	movwf	___awdiv@dividend+1
  3069     0093  120A  158A  203B  120A  118A  	fcall	___awdiv
  3070     0098  0872               	movf	?___awdiv,w
  3071     0099  3E30               	addlw	48
  3072     009A  120A  118A  27E8  120A  118A  	fcall	_clcd_putch
  3073     009F                     l3450:
  3074                           
  3075                           ;main.c: 434: 
  3076     009F  30C7               	movlw	199
  3077     00A0  1283               	bcf	3,5	;RP0=0, select bank0
  3078     00A1  1303               	bcf	3,6	;RP1=0, select bank0
  3079     00A2  00A0               	movwf	clcd_putch@addr
  3080     00A3  300A               	movlw	10
  3081     00A4  00F2               	movwf	___awmod@divisor
  3082     00A5  3000               	movlw	0
  3083     00A6  00F3               	movwf	___awmod@divisor+1
  3084     00A7  086B               	movf	_min,w
  3085     00A8  00D4               	movwf	??_run_program
  3086     00A9  01D5               	clrf	??_run_program+1
  3087     00AA  0854               	movf	??_run_program,w
  3088     00AB  00F4               	movwf	___awmod@dividend
  3089     00AC  0855               	movf	??_run_program+1,w
  3090     00AD  00F5               	movwf	___awmod@dividend+1
  3091     00AE  160A  118A  26ED  120A  118A  	fcall	___awmod
  3092     00B3  0872               	movf	?___awmod,w
  3093     00B4  3E30               	addlw	48
  3094     00B5  120A  118A  27E8  120A  118A  	fcall	_clcd_putch
  3095     00BA                     l3452:
  3096                           
  3097                           ;main.c: 435: 
  3098     00BA  30C8               	movlw	200
  3099     00BB  1283               	bcf	3,5	;RP0=0, select bank0
  3100     00BC  1303               	bcf	3,6	;RP1=0, select bank0
  3101     00BD  00A0               	movwf	clcd_putch@addr
  3102     00BE  303A               	movlw	58
  3103     00BF  120A  118A  27E8  120A  118A  	fcall	_clcd_putch
  3104     00C4                     l3454:
  3105                           
  3106                           ;main.c: 436:         RC2 = 1;
  3107     00C4  30C9               	movlw	201
  3108     00C5  1283               	bcf	3,5	;RP0=0, select bank0
  3109     00C6  1303               	bcf	3,6	;RP1=0, select bank0
  3110     00C7  00A0               	movwf	clcd_putch@addr
  3111     00C8  300A               	movlw	10
  3112     00C9  00F2               	movwf	___awdiv@divisor
  3113     00CA  3000               	movlw	0
  3114     00CB  00F3               	movwf	___awdiv@divisor+1
  3115     00CC  086A               	movf	_sec,w
  3116     00CD  00D4               	movwf	??_run_program
  3117     00CE  01D5               	clrf	??_run_program+1
  3118     00CF  0854               	movf	??_run_program,w
  3119     00D0  00F4               	movwf	___awdiv@dividend
  3120     00D1  0855               	movf	??_run_program+1,w
  3121     00D2  00F5               	movwf	___awdiv@dividend+1
  3122     00D3  120A  158A  203B  120A  118A  	fcall	___awdiv
  3123     00D8  0872               	movf	?___awdiv,w
  3124     00D9  3E30               	addlw	48
  3125     00DA  120A  118A  27E8  120A  118A  	fcall	_clcd_putch
  3126     00DF                     l3456:
  3127                           
  3128                           ;main.c: 437: 
  3129     00DF  30CA               	movlw	202
  3130     00E0  1283               	bcf	3,5	;RP0=0, select bank0
  3131     00E1  1303               	bcf	3,6	;RP1=0, select bank0
  3132     00E2  00A0               	movwf	clcd_putch@addr
  3133     00E3  300A               	movlw	10
  3134     00E4  00F2               	movwf	___awmod@divisor
  3135     00E5  3000               	movlw	0
  3136     00E6  00F3               	movwf	___awmod@divisor+1
  3137     00E7  086A               	movf	_sec,w
  3138     00E8  00D4               	movwf	??_run_program
  3139     00E9  01D5               	clrf	??_run_program+1
  3140     00EA  0854               	movf	??_run_program,w
  3141     00EB  00F4               	movwf	___awmod@dividend
  3142     00EC  0855               	movf	??_run_program+1,w
  3143     00ED  00F5               	movwf	___awmod@dividend+1
  3144     00EE  160A  118A  26ED  120A  118A  	fcall	___awmod
  3145     00F3  0872               	movf	?___awmod,w
  3146     00F4  3E30               	addlw	48
  3147     00F5  120A  118A  27E8  120A  118A  	fcall	_clcd_putch
  3148                           
  3149                           ;main.c: 438:         TMR2ON = 1;
  3150     00FA  3017               	movlw	low (STR_30| (0+32768))
  3151     00FB  00F6               	movwf	clcd_print@str
  3152     00FC  3091               	movlw	high (STR_30| (0+32768))
  3153     00FD  00F7               	movwf	clcd_print@str+1
  3154     00FE  3095               	movlw	149
  3155     00FF  00F8               	movwf	clcd_print@addr
  3156     0100  160A  118A  2615  120A  118A  	fcall	_clcd_print
  3157     0105                     l3458:
  3158                           
  3159                           ;main.c: 440:     if(key == 0x1F)
  3160     0105  3033               	movlw	51
  3161     0106  1283               	bcf	3,5	;RP0=0, select bank0
  3162     0107  1303               	bcf	3,6	;RP1=0, select bank0
  3163     0108  00D6               	movwf	??_run_program+2
  3164     0109  30BB               	movlw	187
  3165     010A  00D5               	movwf	??_run_program+1
  3166     010B  30DF               	movlw	223
  3167     010C  00D4               	movwf	??_run_program
  3168     010D                     u4717:
  3169     010D  0BD4               	decfsz	??_run_program,f
  3170     010E  290D               	goto	u4717
  3171     010F  0BD5               	decfsz	??_run_program+1,f
  3172     0110  290D               	goto	u4717
  3173     0111  0BD6               	decfsz	??_run_program+2,f
  3174     0112  290D               	goto	u4717
  3175     0113                     l3460:
  3176                           
  3177                           ;main.c: 442:         RC2 = 0;
  3178     0113  160A  118A  2528  120A  118A  	fcall	_clear_screen
  3179     0118                     l3462:
  3180                           
  3181                           ;main.c: 443:         TMR2ON = 0;
  3182     0118  3084               	movlw	low (STR_31| (0+32768))
  3183     0119  00F6               	movwf	clcd_print@str
  3184     011A  3090               	movlw	high (STR_31| (0+32768))
  3185     011B  00F7               	movwf	clcd_print@str+1
  3186     011C  3080               	movlw	128
  3187     011D  00F8               	movwf	clcd_print@addr
  3188     011E  160A  118A  2615  120A  118A  	fcall	_clcd_print
  3189     0123                     l3464:
  3190                           
  3191                           ;main.c: 444:         operation_mode = 0x05;
  3192     0123  3027               	movlw	low (STR_32| (0+32768))
  3193     0124  00F6               	movwf	clcd_print@str
  3194     0125  3091               	movlw	high (STR_32| (0+32768))
  3195     0126  00F7               	movwf	clcd_print@str+1
  3196     0127  30C0               	movlw	192
  3197     0128  00F8               	movwf	clcd_print@addr
  3198     0129  160A  118A  2615  120A  118A  	fcall	_clcd_print
  3199     012E                     l3466:
  3200                           
  3201                           ;main.c: 445:     }
  3202     012E  3000               	movlw	low (STR_33| (0+32768))
  3203     012F  00F6               	movwf	clcd_print@str
  3204     0130  3090               	movlw	high (STR_33| (0+32768))
  3205     0131  00F7               	movwf	clcd_print@str+1
  3206     0132  30D0               	movlw	208
  3207     0133  00F8               	movwf	clcd_print@addr
  3208     0134  160A  118A  2615  120A  118A  	fcall	_clcd_print
  3209     0139                     l3468:
  3210                           
  3211                           ;main.c: 447:     total_time = (min* 60 ) + sec;
  3212     0139  1283               	bcf	3,5	;RP0=0, select bank0
  3213     013A  1303               	bcf	3,6	;RP1=0, select bank0
  3214     013B  086B               	movf	_min,w
  3215     013C  00D4               	movwf	??_run_program
  3216     013D  01D5               	clrf	??_run_program+1
  3217     013E  0854               	movf	??_run_program,w
  3218     013F  00F2               	movwf	___wmul@multiplier
  3219     0140  0855               	movf	??_run_program+1,w
  3220     0141  00F3               	movwf	___wmul@multiplier+1
  3221     0142  303C               	movlw	60
  3222     0143  00F4               	movwf	___wmul@multiplicand
  3223     0144  3000               	movlw	0
  3224     0145  00F5               	movwf	___wmul@multiplicand+1
  3225     0146  160A  118A  25C7  120A  118A  	fcall	___wmul
  3226     014B  1283               	bcf	3,5	;RP0=0, select bank0
  3227     014C  1303               	bcf	3,6	;RP1=0, select bank0
  3228     014D  086A               	movf	_sec,w
  3229     014E  0772               	addwf	?___wmul,w
  3230     014F  00E2               	movwf	run_program@total_time
  3231     0150  3000               	movlw	0
  3232     0151  1803               	skipnc
  3233     0152  3001               	movlw	1
  3234     0153  0773               	addwf	?___wmul+1,w
  3235     0154  00E3               	movwf	run_program@total_time+1
  3236     0155  0863               	movf	run_program@total_time+1,w
  3237     0156  00E1               	movwf	run_program@time+1
  3238     0157  0862               	movf	run_program@total_time,w
  3239     0158  00E0               	movwf	run_program@time
  3240     0159                     l3470:
  3241                           
  3242                           ;main.c: 448:     if(program_no <= 7)
  3243     0159  0862               	movf	run_program@total_time,w
  3244     015A  00F2               	movwf	___xxtofl@val
  3245     015B  0863               	movf	run_program@total_time+1,w
  3246     015C  00F3               	movwf	___xxtofl@val+1
  3247     015D  3000               	movlw	0
  3248     015E  1BF3               	btfsc	___xxtofl@val+1,7
  3249     015F  30FF               	movlw	255
  3250     0160  00F4               	movwf	___xxtofl@val+2
  3251     0161  00F5               	movwf	___xxtofl@val+3
  3252     0162  3001               	movlw	1
  3253     0163  120A  118A  272E  120A  118A  	fcall	___xxtofl
  3254     0168  0875               	movf	?___xxtofl+3,w
  3255     0169  1283               	bcf	3,5	;RP0=0, select bank0
  3256     016A  1303               	bcf	3,6	;RP1=0, select bank0
  3257     016B  00AD               	movwf	___flmul@a+3
  3258     016C  0874               	movf	?___xxtofl+2,w
  3259     016D  00AC               	movwf	___flmul@a+2
  3260     016E  0873               	movf	?___xxtofl+1,w
  3261     016F  00AB               	movwf	___flmul@a+1
  3262     0170  0872               	movf	?___xxtofl,w
  3263     0171  00AA               	movwf	___flmul@a
  3264     0172  303E               	movlw	62
  3265     0173  00A9               	movwf	___flmul@b+3
  3266     0174  30EB               	movlw	235
  3267     0175  00A8               	movwf	___flmul@b+2
  3268     0176  3085               	movlw	133
  3269     0177  00A7               	movwf	___flmul@b+1
  3270     0178  301F               	movlw	31
  3271     0179  00A6               	movwf	___flmul@b
  3272     017A  120A  118A  23E9  120A  118A  	fcall	___flmul
  3273     017F  1283               	bcf	3,5	;RP0=0, select bank0
  3274     0180  1303               	bcf	3,6	;RP1=0, select bank0
  3275     0181  0829               	movf	?___flmul+3,w
  3276     0182  00C3               	movwf	___fltol@f1+3
  3277     0183  0828               	movf	?___flmul+2,w
  3278     0184  00C2               	movwf	___fltol@f1+2
  3279     0185  0827               	movf	?___flmul+1,w
  3280     0186  00C1               	movwf	___fltol@f1+1
  3281     0187  0826               	movf	?___flmul,w
  3282     0188  00C0               	movwf	___fltol@f1
  3283     0189  120A  158A  20A2  120A  118A  	fcall	___fltol
  3284     018E  1283               	bcf	3,5	;RP0=0, select bank0
  3285     018F  1303               	bcf	3,6	;RP1=0, select bank0
  3286     0190  0841               	movf	?___fltol+1,w
  3287     0191  00E5               	movwf	_wash_time+1
  3288     0192  0840               	movf	?___fltol,w
  3289     0193  00E4               	movwf	_wash_time
  3290     0194                     l3472:
  3291                           
  3292                           ;main.c: 449:     {
  3293     0194  0862               	movf	run_program@total_time,w
  3294     0195  00F2               	movwf	___xxtofl@val
  3295     0196  0863               	movf	run_program@total_time+1,w
  3296     0197  00F3               	movwf	___xxtofl@val+1
  3297     0198  3000               	movlw	0
  3298     0199  1BF3               	btfsc	___xxtofl@val+1,7
  3299     019A  30FF               	movlw	255
  3300     019B  00F4               	movwf	___xxtofl@val+2
  3301     019C  00F5               	movwf	___xxtofl@val+3
  3302     019D  3001               	movlw	1
  3303     019E  120A  118A  272E  120A  118A  	fcall	___xxtofl
  3304     01A3  0875               	movf	?___xxtofl+3,w
  3305     01A4  1283               	bcf	3,5	;RP0=0, select bank0
  3306     01A5  1303               	bcf	3,6	;RP1=0, select bank0
  3307     01A6  00AD               	movwf	___flmul@a+3
  3308     01A7  0874               	movf	?___xxtofl+2,w
  3309     01A8  00AC               	movwf	___flmul@a+2
  3310     01A9  0873               	movf	?___xxtofl+1,w
  3311     01AA  00AB               	movwf	___flmul@a+1
  3312     01AB  0872               	movf	?___xxtofl,w
  3313     01AC  00AA               	movwf	___flmul@a
  3314     01AD  303D               	movlw	61
  3315     01AE  00A9               	movwf	___flmul@b+3
  3316     01AF  30F5               	movlw	245
  3317     01B0  00A8               	movwf	___flmul@b+2
  3318     01B1  30C2               	movlw	194
  3319     01B2  00A7               	movwf	___flmul@b+1
  3320     01B3  308F               	movlw	143
  3321     01B4  00A6               	movwf	___flmul@b
  3322     01B5  120A  118A  23E9  120A  118A  	fcall	___flmul
  3323     01BA  1283               	bcf	3,5	;RP0=0, select bank0
  3324     01BB  1303               	bcf	3,6	;RP1=0, select bank0
  3325     01BC  0829               	movf	?___flmul+3,w
  3326     01BD  00C3               	movwf	___fltol@f1+3
  3327     01BE  0828               	movf	?___flmul+2,w
  3328     01BF  00C2               	movwf	___fltol@f1+2
  3329     01C0  0827               	movf	?___flmul+1,w
  3330     01C1  00C1               	movwf	___fltol@f1+1
  3331     01C2  0826               	movf	?___flmul,w
  3332     01C3  00C0               	movwf	___fltol@f1
  3333     01C4  120A  158A  20A2  120A  118A  	fcall	___fltol
  3334     01C9  1283               	bcf	3,5	;RP0=0, select bank0
  3335     01CA  1303               	bcf	3,6	;RP1=0, select bank0
  3336     01CB  0841               	movf	?___fltol+1,w
  3337     01CC  00E7               	movwf	_rinse_time+1
  3338     01CD  0840               	movf	?___fltol,w
  3339     01CE  00E6               	movwf	_rinse_time
  3340     01CF                     l3474:
  3341                           
  3342                           ;main.c: 450:         if(total_time >= (time - wash_time))
  3343     01CF  0964               	comf	_wash_time,w
  3344     01D0  00D4               	movwf	??_run_program
  3345     01D1  0965               	comf	_wash_time+1,w
  3346     01D2  00D5               	movwf	??_run_program+1
  3347     01D3  0AD4               	incf	??_run_program,f
  3348     01D4  1903               	skipnz
  3349     01D5  0AD5               	incf	??_run_program+1,f
  3350     01D6  0866               	movf	_rinse_time,w
  3351     01D7  0254               	subwf	??_run_program,w
  3352     01D8  00D6               	movwf	??_run_program+2
  3353     01D9  0867               	movf	_rinse_time+1,w
  3354     01DA  1C03               	skipc
  3355     01DB  0A67               	incf	_rinse_time+1,w
  3356     01DC  0255               	subwf	??_run_program+1,w
  3357     01DD  00D7               	movwf	??_run_program+3
  3358     01DE  0862               	movf	run_program@total_time,w
  3359     01DF  0756               	addwf	??_run_program+2,w
  3360     01E0  1683               	bsf	3,5	;RP0=1, select bank1
  3361     01E1  1303               	bcf	3,6	;RP1=0, select bank1
  3362     01E2  00C4               	movwf	_spin_time^(0+128)
  3363     01E3  1283               	bcf	3,5	;RP0=0, select bank0
  3364     01E4  1303               	bcf	3,6	;RP1=0, select bank0
  3365     01E5  0863               	movf	run_program@total_time+1,w
  3366     01E6  1803               	skipnc
  3367     01E7  0A63               	incf	run_program@total_time+1,w
  3368     01E8  0757               	addwf	??_run_program+3,w
  3369     01E9  1683               	bsf	3,5	;RP0=1, select bank1
  3370     01EA  1303               	bcf	3,6	;RP1=0, select bank1
  3371     01EB  00C5               	movwf	(_spin_time+1)^(0+128)
  3372     01EC                     l3476:
  3373                           
  3374                           ;main.c: 453:         }
  3375     01EC  1283               	bcf	3,5	;RP0=0, select bank0
  3376     01ED  1303               	bcf	3,6	;RP1=0, select bank0
  3377     01EE  1507               	bsf	7,2	;volatile
  3378     01EF                     l3478:
  3379                           
  3380                           ;main.c: 455:         {
  3381     01EF  1512               	bsf	18,2	;volatile
  3382     01F0                     l3480:
  3383                           
  3384                           ;main.c: 457:         }
  3385     01F0  301F               	movlw	31
  3386     01F1  065A               	xorwf	run_program@key,w
  3387     01F2  1D03               	btfss	3,2
  3388     01F3  29F5               	goto	u4511
  3389     01F4  29F6               	goto	u4510
  3390     01F5                     u4511:
  3391     01F5  29FA               	goto	l3486
  3392     01F6                     u4510:
  3393     01F6                     l3482:
  3394                           
  3395                           ;main.c: 458:         else;main.c: 459:         {
  3396     01F6  1107               	bcf	7,2	;volatile
  3397                           
  3398                           ;main.c: 460:             clcd_print ("Spin ", (0x80 + 11));
  3399     01F7  1112               	bcf	18,2	;volatile
  3400     01F8                     l3484:
  3401                           
  3402                           ;main.c: 461:         }
  3403     01F8  3005               	movlw	5
  3404     01F9  00EE               	movwf	_operation_mode
  3405     01FA                     l3486:
  3406                           
  3407                           ;main.c: 464:     else if(program_no == 8)
  3408     01FA  086B               	movf	_min,w
  3409     01FB  00D4               	movwf	??_run_program
  3410     01FC  01D5               	clrf	??_run_program+1
  3411     01FD  0854               	movf	??_run_program,w
  3412     01FE  00F2               	movwf	___wmul@multiplier
  3413     01FF  0855               	movf	??_run_program+1,w
  3414     0200  00F3               	movwf	___wmul@multiplier+1
  3415     0201  303C               	movlw	60
  3416     0202  00F4               	movwf	___wmul@multiplicand
  3417     0203  3000               	movlw	0
  3418     0204  00F5               	movwf	___wmul@multiplicand+1
  3419     0205  160A  118A  25C7  120A  118A  	fcall	___wmul
  3420     020A  1283               	bcf	3,5	;RP0=0, select bank0
  3421     020B  1303               	bcf	3,6	;RP1=0, select bank0
  3422     020C  086A               	movf	_sec,w
  3423     020D  0772               	addwf	?___wmul,w
  3424     020E  00E2               	movwf	run_program@total_time
  3425     020F  3000               	movlw	0
  3426     0210  1803               	skipnc
  3427     0211  3001               	movlw	1
  3428     0212  0773               	addwf	?___wmul+1,w
  3429     0213  00E3               	movwf	run_program@total_time+1
  3430     0214                     l3488:
  3431                           
  3432                           ;main.c: 465:     {
  3433     0214  3008               	movlw	8
  3434     0215  027B               	subwf	_program_no,w
  3435     0216  1803               	skipnc
  3436     0217  2A19               	goto	u4521
  3437     0218  2A1A               	goto	u4520
  3438     0219                     u4521:
  3439     0219  2A79               	goto	l3500
  3440     021A                     u4520:
  3441     021A                     l3490:
  3442                           
  3443                           ;main.c: 466:         if (total_time >= (time - (0.40 *time)));main.c: 467:         {
  3444     021A  0864               	movf	_wash_time,w
  3445     021B  0260               	subwf	run_program@time,w
  3446     021C  00D4               	movwf	??_run_program
  3447     021D  0865               	movf	_wash_time+1,w
  3448     021E  1C03               	skipc
  3449     021F  0A65               	incf	_wash_time+1,w
  3450     0220  0261               	subwf	run_program@time+1,w
  3451     0221  00D5               	movwf	??_run_program+1
  3452     0222  0855               	movf	??_run_program+1,w
  3453     0223  0263               	subwf	run_program@total_time+1,w
  3454     0224  1D03               	skipz
  3455     0225  2A28               	goto	u4535
  3456     0226  0854               	movf	??_run_program,w
  3457     0227  0262               	subwf	run_program@total_time,w
  3458     0228                     u4535:
  3459     0228  1C03               	skipc
  3460     0229  2A2B               	goto	u4531
  3461     022A  2A2C               	goto	u4530
  3462     022B                     u4531:
  3463     022B  2A38               	goto	l3494
  3464     022C                     u4530:
  3465     022C                     l3492:
  3466                           
  3467                           ;main.c: 468:             clcd_print ("Rinse", (0x80 + 11));;main.c: 469:         }
  3468     022C  306D               	movlw	low (STR_34| (0+32768))
  3469     022D  00F6               	movwf	clcd_print@str
  3470     022E  3091               	movlw	high (STR_34| (0+32768))
  3471     022F  00F7               	movwf	clcd_print@str+1
  3472     0230  308B               	movlw	139
  3473     0231  00F8               	movwf	clcd_print@addr
  3474     0232  160A  118A  2615  120A  118A  	fcall	_clcd_print
  3475                           
  3476                           ;main.c: 470:         else
  3477     0237  2B2E               	goto	l3514
  3478     0238                     l3494:
  3479     0238  0964               	comf	_wash_time,w
  3480     0239  00D4               	movwf	??_run_program
  3481     023A  0965               	comf	_wash_time+1,w
  3482     023B  00D5               	movwf	??_run_program+1
  3483     023C  0AD4               	incf	??_run_program,f
  3484     023D  1903               	skipnz
  3485     023E  0AD5               	incf	??_run_program+1,f
  3486     023F  1683               	bsf	3,5	;RP0=1, select bank1
  3487     0240  1303               	bcf	3,6	;RP1=0, select bank1
  3488     0241  0844               	movf	_spin_time^(0+128),w
  3489     0242  1283               	bcf	3,5	;RP0=0, select bank0
  3490     0243  1303               	bcf	3,6	;RP1=0, select bank0
  3491     0244  0254               	subwf	??_run_program,w
  3492     0245  00D6               	movwf	??_run_program+2
  3493     0246  1683               	bsf	3,5	;RP0=1, select bank1
  3494     0247  1303               	bcf	3,6	;RP1=0, select bank1
  3495     0248  0845               	movf	(_spin_time+1)^(0+128),w
  3496     0249  1C03               	skipc
  3497     024A  0A45               	incf	(_spin_time+1)^(0+128),w
  3498     024B  1283               	bcf	3,5	;RP0=0, select bank0
  3499     024C  1303               	bcf	3,6	;RP1=0, select bank0
  3500     024D  0255               	subwf	??_run_program+1,w
  3501     024E  00D7               	movwf	??_run_program+3
  3502     024F  0860               	movf	run_program@time,w
  3503     0250  0756               	addwf	??_run_program+2,w
  3504     0251  00D8               	movwf	??_run_program+4
  3505     0252  0861               	movf	run_program@time+1,w
  3506     0253  1803               	skipnc
  3507     0254  0A61               	incf	run_program@time+1,w
  3508     0255  0757               	addwf	??_run_program+3,w
  3509     0256  00D9               	movwf	??_run_program+5
  3510     0257  0859               	movf	??_run_program+5,w
  3511     0258  0263               	subwf	run_program@total_time+1,w
  3512     0259  1D03               	skipz
  3513     025A  2A5D               	goto	u4545
  3514     025B  0858               	movf	??_run_program+4,w
  3515     025C  0262               	subwf	run_program@total_time,w
  3516     025D                     u4545:
  3517     025D  1C03               	skipc
  3518     025E  2A60               	goto	u4541
  3519     025F  2A61               	goto	u4540
  3520     0260                     u4541:
  3521     0260  2A6D               	goto	l3498
  3522     0261                     u4540:
  3523     0261                     l3496:
  3524                           
  3525                           ;main.c: 472:             clcd_print ("Spin ", (0x80 + 11));;main.c: 473:         }
  3526     0261  3056               	movlw	low (STR_35| (0+32768))
  3527     0262  00F6               	movwf	clcd_print@str
  3528     0263  3091               	movlw	high (STR_35| (0+32768))
  3529     0264  00F7               	movwf	clcd_print@str+1
  3530     0265  308B               	movlw	139
  3531     0266  00F8               	movwf	clcd_print@addr
  3532     0267  160A  118A  2615  120A  118A  	fcall	_clcd_print
  3533                           
  3534                           ;main.c: 474:     }
  3535     026C  2B2E               	goto	l3514
  3536     026D                     l3498:
  3537                           
  3538                           ;main.c: 476:     {;main.c: 477:         clcd_print ("Spin ", (0x80 + 11));
  3539     026D  3050               	movlw	low (STR_36| (0+32768))
  3540     026E  00F6               	movwf	clcd_print@str
  3541     026F  3091               	movlw	high (STR_36| (0+32768))
  3542     0270  00F7               	movwf	clcd_print@str+1
  3543     0271  308B               	movlw	139
  3544     0272  00F8               	movwf	clcd_print@addr
  3545     0273  160A  118A  2615  120A  118A  	fcall	_clcd_print
  3546     0278  2B2E               	goto	l3514
  3547     0279                     l3500:
  3548     0279  3008               	movlw	8
  3549     027A  067B               	xorwf	_program_no,w
  3550     027B  1D03               	btfss	3,2
  3551     027C  2A7E               	goto	u4551
  3552     027D  2A7F               	goto	u4550
  3553     027E                     u4551:
  3554     027E  2B11               	goto	l3508
  3555     027F                     u4550:
  3556     027F                     l3502:
  3557                           
  3558                           ;main.c: 482:     };main.c: 483:     clcd_putch((min/10) + '0' , (0xC0 + 6));
  3559     027F  0862               	movf	run_program@total_time,w
  3560     0280  00F2               	movwf	___xxtofl@val
  3561     0281  0863               	movf	run_program@total_time+1,w
  3562     0282  00F3               	movwf	___xxtofl@val+1
  3563     0283  3000               	movlw	0
  3564     0284  1BF3               	btfsc	___xxtofl@val+1,7
  3565     0285  30FF               	movlw	255
  3566     0286  00F4               	movwf	___xxtofl@val+2
  3567     0287  00F5               	movwf	___xxtofl@val+3
  3568     0288  3001               	movlw	1
  3569     0289  120A  118A  272E  120A  118A  	fcall	___xxtofl
  3570     028E  0875               	movf	?___xxtofl+3,w
  3571     028F  1283               	bcf	3,5	;RP0=0, select bank0
  3572     0290  1303               	bcf	3,6	;RP1=0, select bank0
  3573     0291  00CB               	movwf	___flge@ff1+3
  3574     0292  0874               	movf	?___xxtofl+2,w
  3575     0293  00CA               	movwf	___flge@ff1+2
  3576     0294  0873               	movf	?___xxtofl+1,w
  3577     0295  00C9               	movwf	___flge@ff1+1
  3578     0296  0872               	movf	?___xxtofl,w
  3579     0297  00C8               	movwf	___flge@ff1
  3580     0298  0860               	movf	run_program@time,w
  3581     0299  00F2               	movwf	___xxtofl@val
  3582     029A  0861               	movf	run_program@time+1,w
  3583     029B  00F3               	movwf	___xxtofl@val+1
  3584     029C  3000               	movlw	0
  3585     029D  1BF3               	btfsc	___xxtofl@val+1,7
  3586     029E  30FF               	movlw	255
  3587     029F  00F4               	movwf	___xxtofl@val+2
  3588     02A0  00F5               	movwf	___xxtofl@val+3
  3589     02A1  3001               	movlw	1
  3590     02A2  120A  118A  272E  120A  118A  	fcall	___xxtofl
  3591     02A7  0875               	movf	?___xxtofl+3,w
  3592     02A8  1283               	bcf	3,5	;RP0=0, select bank0
  3593     02A9  1303               	bcf	3,6	;RP1=0, select bank0
  3594     02AA  00C7               	movwf	___flsub@b+3
  3595     02AB  0874               	movf	?___xxtofl+2,w
  3596     02AC  00C6               	movwf	___flsub@b+2
  3597     02AD  0873               	movf	?___xxtofl+1,w
  3598     02AE  00C5               	movwf	___flsub@b+1
  3599     02AF  0872               	movf	?___xxtofl,w
  3600     02B0  00C4               	movwf	___flsub@b
  3601     02B1  0860               	movf	run_program@time,w
  3602     02B2  00F2               	movwf	___xxtofl@val
  3603     02B3  0861               	movf	run_program@time+1,w
  3604     02B4  00F3               	movwf	___xxtofl@val+1
  3605     02B5  3000               	movlw	0
  3606     02B6  1BF3               	btfsc	___xxtofl@val+1,7
  3607     02B7  30FF               	movlw	255
  3608     02B8  00F4               	movwf	___xxtofl@val+2
  3609     02B9  00F5               	movwf	___xxtofl@val+3
  3610     02BA  3001               	movlw	1
  3611     02BB  120A  118A  272E  120A  118A  	fcall	___xxtofl
  3612     02C0  0875               	movf	?___xxtofl+3,w
  3613     02C1  1283               	bcf	3,5	;RP0=0, select bank0
  3614     02C2  1303               	bcf	3,6	;RP1=0, select bank0
  3615     02C3  00AD               	movwf	___flmul@a+3
  3616     02C4  0874               	movf	?___xxtofl+2,w
  3617     02C5  00AC               	movwf	___flmul@a+2
  3618     02C6  0873               	movf	?___xxtofl+1,w
  3619     02C7  00AB               	movwf	___flmul@a+1
  3620     02C8  0872               	movf	?___xxtofl,w
  3621     02C9  00AA               	movwf	___flmul@a
  3622     02CA  303E               	movlw	62
  3623     02CB  00A9               	movwf	___flmul@b+3
  3624     02CC  30CC               	movlw	204
  3625     02CD  00A8               	movwf	___flmul@b+2
  3626     02CE  30CC               	movlw	204
  3627     02CF  00A7               	movwf	___flmul@b+1
  3628     02D0  30CD               	movlw	205
  3629     02D1  00A6               	movwf	___flmul@b
  3630     02D2  120A  118A  23E9  120A  118A  	fcall	___flmul
  3631     02D7  1283               	bcf	3,5	;RP0=0, select bank0
  3632     02D8  1303               	bcf	3,6	;RP1=0, select bank0
  3633     02D9  0829               	movf	?___flmul+3,w
  3634     02DA  00C3               	movwf	___flsub@a+3
  3635     02DB  0828               	movf	?___flmul+2,w
  3636     02DC  00C2               	movwf	___flsub@a+2
  3637     02DD  0827               	movf	?___flmul+1,w
  3638     02DE  00C1               	movwf	___flsub@a+1
  3639     02DF  0826               	movf	?___flmul,w
  3640     02E0  00C0               	movwf	___flsub@a
  3641     02E1  160A  118A  25A3  120A  118A  	fcall	___flsub
  3642     02E6  1283               	bcf	3,5	;RP0=0, select bank0
  3643     02E7  1303               	bcf	3,6	;RP1=0, select bank0
  3644     02E8  0843               	movf	?___flsub+3,w
  3645     02E9  00CF               	movwf	___flge@ff2+3
  3646     02EA  0842               	movf	?___flsub+2,w
  3647     02EB  00CE               	movwf	___flge@ff2+2
  3648     02EC  0841               	movf	?___flsub+1,w
  3649     02ED  00CD               	movwf	___flge@ff2+1
  3650     02EE  0840               	movf	?___flsub,w
  3651     02EF  00CC               	movwf	___flge@ff2
  3652     02F0  120A  158A  211A  120A  118A  	fcall	___flge
  3653     02F5  1C03               	btfss	3,0
  3654     02F6  2AF8               	goto	u4561
  3655     02F7  2AF9               	goto	u4560
  3656     02F8                     u4561:
  3657     02F8  2B05               	goto	l3506
  3658     02F9                     u4560:
  3659     02F9                     l3504:
  3660                           
  3661                           ;main.c: 484:     clcd_putch((min%10) + '0' , (0xC0 + 7));;main.c: 485:     clcd_putch('
      +                          :' , (0xC0 + 8));
  3662     02F9  3056               	movlw	low (STR_35| (0+32768))
  3663     02FA  00F6               	movwf	clcd_print@str
  3664     02FB  3091               	movlw	high (STR_35| (0+32768))
  3665     02FC  00F7               	movwf	clcd_print@str+1
  3666     02FD  308B               	movlw	139
  3667     02FE  00F8               	movwf	clcd_print@addr
  3668     02FF  160A  118A  2615  120A  118A  	fcall	_clcd_print
  3669                           
  3670                           ;main.c: 486:     clcd_putch((sec/10) + '0' , (0xC0 + 9));
  3671     0304  2B2E               	goto	l3514
  3672     0305                     l3506:
  3673                           
  3674                           ;main.c: 488: ;main.c: 489:     if ( (sec == 0) && (min == 0) )
  3675     0305  3050               	movlw	low (STR_36| (0+32768))
  3676     0306  00F6               	movwf	clcd_print@str
  3677     0307  3091               	movlw	high (STR_36| (0+32768))
  3678     0308  00F7               	movwf	clcd_print@str+1
  3679     0309  308B               	movlw	139
  3680     030A  00F8               	movwf	clcd_print@addr
  3681     030B  160A  118A  2615  120A  118A  	fcall	_clcd_print
  3682     0310  2B2E               	goto	l3514
  3683     0311                     l3508:
  3684     0311  3009               	movlw	9
  3685     0312  067B               	xorwf	_program_no,w
  3686     0313  1D03               	btfss	3,2
  3687     0314  2B16               	goto	u4571
  3688     0315  2B17               	goto	u4570
  3689     0316                     u4571:
  3690     0316  2B23               	goto	l3512
  3691     0317                     u4570:
  3692     0317                     l3510:
  3693                           
  3694                           ;main.c: 493: ;main.c: 494:         TMR2ON = 0;
  3695     0317  3050               	movlw	low (STR_36| (0+32768))
  3696     0318  00F6               	movwf	clcd_print@str
  3697     0319  3091               	movlw	high (STR_36| (0+32768))
  3698     031A  00F7               	movwf	clcd_print@str+1
  3699     031B  308B               	movlw	139
  3700     031C  00F8               	movwf	clcd_print@addr
  3701     031D  160A  118A  2615  120A  118A  	fcall	_clcd_print
  3702                           
  3703                           ;main.c: 495: 
  3704     0322  2B2E               	goto	l3514
  3705     0323                     l3512:
  3706                           
  3707                           ;main.c: 497:         clear_screen();;main.c: 498: 
  3708     0323  304A               	movlw	low (STR_40| (0+32768))
  3709     0324  00F6               	movwf	clcd_print@str
  3710     0325  3091               	movlw	high (STR_40| (0+32768))
  3711     0326  00F7               	movwf	clcd_print@str+1
  3712     0327  308B               	movlw	139
  3713     0328  00F8               	movwf	clcd_print@addr
  3714     0329  160A  118A  2615  120A  118A  	fcall	_clcd_print
  3715     032E                     l3514:
  3716                           
  3717                           ;main.c: 500:         clcd_print ("Remove Clothes", (0xC0 + 0));
  3718     032E  30C6               	movlw	198
  3719     032F  1283               	bcf	3,5	;RP0=0, select bank0
  3720     0330  1303               	bcf	3,6	;RP1=0, select bank0
  3721     0331  00A0               	movwf	clcd_putch@addr
  3722     0332  300A               	movlw	10
  3723     0333  00F2               	movwf	___awdiv@divisor
  3724     0334  3000               	movlw	0
  3725     0335  00F3               	movwf	___awdiv@divisor+1
  3726     0336  086B               	movf	_min,w
  3727     0337  00D4               	movwf	??_run_program
  3728     0338  01D5               	clrf	??_run_program+1
  3729     0339  0854               	movf	??_run_program,w
  3730     033A  00F4               	movwf	___awdiv@dividend
  3731     033B  0855               	movf	??_run_program+1,w
  3732     033C  00F5               	movwf	___awdiv@dividend+1
  3733     033D  120A  158A  203B  120A  118A  	fcall	___awdiv
  3734     0342  0872               	movf	?___awdiv,w
  3735     0343  3E30               	addlw	48
  3736     0344  120A  118A  27E8  120A  118A  	fcall	_clcd_putch
  3737     0349                     l3516:
  3738                           
  3739                           ;main.c: 501:         _delay((unsigned long)((2000)*(20000000/4000.0)));
  3740     0349  30C7               	movlw	199
  3741     034A  1283               	bcf	3,5	;RP0=0, select bank0
  3742     034B  1303               	bcf	3,6	;RP1=0, select bank0
  3743     034C  00A0               	movwf	clcd_putch@addr
  3744     034D  300A               	movlw	10
  3745     034E  00F2               	movwf	___awmod@divisor
  3746     034F  3000               	movlw	0
  3747     0350  00F3               	movwf	___awmod@divisor+1
  3748     0351  086B               	movf	_min,w
  3749     0352  00D4               	movwf	??_run_program
  3750     0353  01D5               	clrf	??_run_program+1
  3751     0354  0854               	movf	??_run_program,w
  3752     0355  00F4               	movwf	___awmod@dividend
  3753     0356  0855               	movf	??_run_program+1,w
  3754     0357  00F5               	movwf	___awmod@dividend+1
  3755     0358  160A  118A  26ED  120A  118A  	fcall	___awmod
  3756     035D  0872               	movf	?___awmod,w
  3757     035E  3E30               	addlw	48
  3758     035F  120A  118A  27E8  120A  118A  	fcall	_clcd_putch
  3759     0364                     l3518:
  3760                           
  3761                           ;main.c: 502:           RC1 = 0;
  3762     0364  30C8               	movlw	200
  3763     0365  1283               	bcf	3,5	;RP0=0, select bank0
  3764     0366  1303               	bcf	3,6	;RP1=0, select bank0
  3765     0367  00A0               	movwf	clcd_putch@addr
  3766     0368  303A               	movlw	58
  3767     0369  120A  118A  27E8  120A  118A  	fcall	_clcd_putch
  3768     036E                     l3520:
  3769                           
  3770                           ;main.c: 503:           operation_mode = 0x01 ;
  3771     036E  30C9               	movlw	201
  3772     036F  1283               	bcf	3,5	;RP0=0, select bank0
  3773     0370  1303               	bcf	3,6	;RP1=0, select bank0
  3774     0371  00A0               	movwf	clcd_putch@addr
  3775     0372  300A               	movlw	10
  3776     0373  00F2               	movwf	___awdiv@divisor
  3777     0374  3000               	movlw	0
  3778     0375  00F3               	movwf	___awdiv@divisor+1
  3779     0376  086A               	movf	_sec,w
  3780     0377  00D4               	movwf	??_run_program
  3781     0378  01D5               	clrf	??_run_program+1
  3782     0379  0854               	movf	??_run_program,w
  3783     037A  00F4               	movwf	___awdiv@dividend
  3784     037B  0855               	movf	??_run_program+1,w
  3785     037C  00F5               	movwf	___awdiv@dividend+1
  3786     037D  120A  158A  203B  120A  118A  	fcall	___awdiv
  3787     0382  0872               	movf	?___awdiv,w
  3788     0383  3E30               	addlw	48
  3789     0384  120A  118A  27E8  120A  118A  	fcall	_clcd_putch
  3790     0389                     l3522:
  3791                           
  3792                           ;main.c: 504:           reset_mode = 0x10;
  3793     0389  30CA               	movlw	202
  3794     038A  1283               	bcf	3,5	;RP0=0, select bank0
  3795     038B  1303               	bcf	3,6	;RP1=0, select bank0
  3796     038C  00A0               	movwf	clcd_putch@addr
  3797     038D  300A               	movlw	10
  3798     038E  00F2               	movwf	___awmod@divisor
  3799     038F  3000               	movlw	0
  3800     0390  00F3               	movwf	___awmod@divisor+1
  3801     0391  086A               	movf	_sec,w
  3802     0392  00D4               	movwf	??_run_program
  3803     0393  01D5               	clrf	??_run_program+1
  3804     0394  0854               	movf	??_run_program,w
  3805     0395  00F4               	movwf	___awmod@dividend
  3806     0396  0855               	movf	??_run_program+1,w
  3807     0397  00F5               	movwf	___awmod@dividend+1
  3808     0398  160A  118A  26ED  120A  118A  	fcall	___awmod
  3809     039D  0872               	movf	?___awmod,w
  3810     039E  3E30               	addlw	48
  3811     039F  120A  118A  27E8  120A  118A  	fcall	_clcd_putch
  3812     03A4                     l3524:
  3813                           
  3814                           ;main.c: 506: 
  3815     03A4  1283               	bcf	3,5	;RP0=0, select bank0
  3816     03A5  1303               	bcf	3,6	;RP1=0, select bank0
  3817     03A6  086A               	movf	_sec,w
  3818     03A7  1D03               	btfss	3,2
  3819     03A8  2BAA               	goto	u4581
  3820     03A9  2BAB               	goto	u4580
  3821     03AA                     u4581:
  3822     03AA  2BE8               	goto	l209
  3823     03AB                     u4580:
  3824     03AB                     l3526:
  3825     03AB  086B               	movf	_min,w
  3826     03AC  1D03               	btfss	3,2
  3827     03AD  2BAF               	goto	u4591
  3828     03AE  2BB0               	goto	u4590
  3829     03AF                     u4591:
  3830     03AF  2BE8               	goto	l209
  3831     03B0                     u4590:
  3832     03B0                     l3528:
  3833                           
  3834                           ;main.c: 507:     };main.c: 509: 
  3835     03B0  1107               	bcf	7,2	;volatile
  3836                           
  3837                           ;main.c: 511: void door_status_check(void)
  3838     03B1  1112               	bcf	18,2	;volatile
  3839                           
  3840                           ;main.c: 513:     if(RB0 == 0)
  3841     03B2  1487               	bsf	7,1	;volatile
  3842     03B3                     l3530:
  3843                           
  3844                           ;main.c: 514:     {
  3845     03B3  160A  118A  2528  120A  118A  	fcall	_clear_screen
  3846     03B8                     l3532:
  3847                           
  3848                           ;main.c: 516:         RC2 = 0;
  3849     03B8  3031               	movlw	low (STR_41| (0+32768))
  3850     03B9  00F6               	movwf	clcd_print@str
  3851     03BA  3090               	movlw	high (STR_41| (0+32768))
  3852     03BB  00F7               	movwf	clcd_print@str+1
  3853     03BC  3080               	movlw	128
  3854     03BD  00F8               	movwf	clcd_print@addr
  3855     03BE  160A  118A  2615  120A  118A  	fcall	_clcd_print
  3856     03C3                     l3534:
  3857                           
  3858                           ;main.c: 517:         TMR2ON = 0;
  3859     03C3  3040               	movlw	low (STR_42| (0+32768))
  3860     03C4  00F6               	movwf	clcd_print@str
  3861     03C5  3090               	movlw	high (STR_42| (0+32768))
  3862     03C6  00F7               	movwf	clcd_print@str+1
  3863     03C7  30C0               	movlw	192
  3864     03C8  00F8               	movwf	clcd_print@addr
  3865     03C9  160A  118A  2615  120A  118A  	fcall	_clcd_print
  3866     03CE                     l3536:
  3867                           
  3868                           ;main.c: 518:         RC1 = 1;
  3869     03CE  3033               	movlw	51
  3870     03CF  1283               	bcf	3,5	;RP0=0, select bank0
  3871     03D0  1303               	bcf	3,6	;RP1=0, select bank0
  3872     03D1  00D6               	movwf	??_run_program+2
  3873     03D2  30BB               	movlw	187
  3874     03D3  00D5               	movwf	??_run_program+1
  3875     03D4  30DF               	movlw	223
  3876     03D5  00D4               	movwf	??_run_program
  3877     03D6                     u4727:
  3878     03D6  0BD4               	decfsz	??_run_program,f
  3879     03D7  2BD6               	goto	u4727
  3880     03D8  0BD5               	decfsz	??_run_program+1,f
  3881     03D9  2BD6               	goto	u4727
  3882     03DA  0BD6               	decfsz	??_run_program+2,f
  3883     03DB  2BD6               	goto	u4727
  3884     03DC                     l3538:
  3885                           
  3886                           ;main.c: 519:         clear_screen();
  3887     03DC  1283               	bcf	3,5	;RP0=0, select bank0
  3888     03DD  1303               	bcf	3,6	;RP1=0, select bank0
  3889     03DE  1087               	bcf	7,1	;volatile
  3890     03DF                     l3540:
  3891                           
  3892                           ;main.c: 520:         clcd_print ("Door : OPEN", (0x80 + 0));
  3893     03DF  01EE               	clrf	_operation_mode
  3894     03E0  0AEE               	incf	_operation_mode,f
  3895     03E1                     l3542:
  3896                           
  3897                           ;main.c: 521:         clcd_print ("Please Close", (0x90 + 0));
  3898     03E1  3010               	movlw	16
  3899     03E2  00ED               	movwf	_reset_mode
  3900                           
  3901                           ;main.c: 522:         while(RB0 == 0)
  3902     03E3  160A  118A  2528  120A  118A  	fcall	_clear_screen
  3903     03E8                     l209:
  3904     03E8  0008               	return
  3905     03E9                     __end_of_run_program:
  3906                           
  3907                           	psect	text5
  3908     1697                     __ptext5:	
  3909 ;; *************** function _door_status_check *****************
  3910 ;; Defined at:
  3911 ;;		line 528 in file "main.c"
  3912 ;; Parameters:    Size  Location     Type
  3913 ;;		None
  3914 ;; Auto vars:     Size  Location     Type
  3915 ;;		None
  3916 ;; Return value:  Size  Location     Type
  3917 ;;                  1    wreg      void 
  3918 ;; Registers used:
  3919 ;;		wreg, fsr0l, fsr0h, status,2, status,0, btemp+1, pclath, cstack
  3920 ;; Tracked objects:
  3921 ;;		On entry : 0/0
  3922 ;;		On exit  : 0/0
  3923 ;;		Unchanged: 0/0
  3924 ;; Data sizes:     COMMON   BANK0   BANK1   BANK3   BANK2
  3925 ;;      Params:         0       0       0       0       0
  3926 ;;      Locals:         0       0       0       0       0
  3927 ;;      Temps:          0       0       0       0       0
  3928 ;;      Totals:         0       0       0       0       0
  3929 ;;Total ram usage:        0 bytes
  3930 ;; Hardware stack levels used: 1
  3931 ;; Hardware stack levels required when called: 3
  3932 ;; This function calls:
  3933 ;;		_clcd_print
  3934 ;;		_clear_screen
  3935 ;; This function is called by:
  3936 ;;		_run_program
  3937 ;; This function uses a non-reentrant model
  3938 ;;
  3939                           
  3940     1697                     _door_status_check:	
  3941                           ;psect for function _door_status_check
  3942                           
  3943     1697                     l3164:	
  3944                           ;incstack = 0
  3945                           ; Regs used in _door_status_check: [wreg-fsr0h+status,2+status,0+btemp+1+pclath+cstack]
  3946                           
  3947                           
  3948                           ;main.c: 530: 
  3949     1697  1283               	bcf	3,5	;RP0=0, select bank0
  3950     1698  1303               	bcf	3,6	;RP1=0, select bank0
  3951     1699  1806               	btfsc	6,0	;volatile
  3952     169A  2E9C               	goto	u3971
  3953     169B  2E9D               	goto	u3970
  3954     169C                     u3971:
  3955     169C  2EEC               	goto	l216
  3956     169D                     u3970:
  3957     169D                     l3166:
  3958                           
  3959                           ;main.c: 531:         RC2 = 1;;main.c: 533:         TMR2ON = 1;
  3960     169D  1107               	bcf	7,2	;volatile
  3961                           
  3962                           ;main.c: 534:         RC1 = 0;
  3963     169E  1112               	bcf	18,2	;volatile
  3964                           
  3965                           ;main.c: 535: 
  3966     169F  1487               	bsf	7,1	;volatile
  3967     16A0                     l3168:
  3968                           
  3969                           ;main.c: 536:     }
  3970     16A0  160A  118A  2528  160A  118A  	fcall	_clear_screen
  3971     16A5                     l3170:
  3972                           
  3973                           ;main.c: 537: }
  3974     16A5  3090               	movlw	low (STR_43| (0+32768))
  3975     16A6  00F6               	movwf	clcd_print@str
  3976     16A7  3090               	movlw	high (STR_43| (0+32768))
  3977     16A8  00F7               	movwf	clcd_print@str+1
  3978     16A9  3080               	movlw	128
  3979     16AA  00F8               	movwf	clcd_print@addr
  3980     16AB  160A  118A  2615  160A  118A  	fcall	_clcd_print
  3981     16B0                     l3172:
  3982     16B0  306A               	movlw	low (STR_44| (0+32768))
  3983     16B1  00F6               	movwf	clcd_print@str
  3984     16B2  3090               	movlw	high (STR_44| (0+32768))
  3985     16B3  00F7               	movwf	clcd_print@str+1
  3986     16B4  3090               	movlw	144
  3987     16B5  00F8               	movwf	clcd_print@addr
  3988     16B6  160A  118A  2615  160A  118A  	fcall	_clcd_print
  3989     16BB                     l213:
  3990     16BB  1283               	bcf	3,5	;RP0=0, select bank0
  3991     16BC  1303               	bcf	3,6	;RP1=0, select bank0
  3992     16BD  1C06               	btfss	6,0	;volatile
  3993     16BE  2EC0               	goto	u3981
  3994     16BF  2EC1               	goto	u3980
  3995     16C0                     u3981:
  3996     16C0  2EBB               	goto	l213
  3997     16C1                     u3980:
  3998     16C1                     l3174:
  3999     16C1  160A  118A  2528  160A  118A  	fcall	_clear_screen
  4000     16C6                     l3176:
  4001     16C6  3084               	movlw	low (STR_31| (0+32768))
  4002     16C7  00F6               	movwf	clcd_print@str
  4003     16C8  3090               	movlw	high (STR_31| (0+32768))
  4004     16C9  00F7               	movwf	clcd_print@str+1
  4005     16CA  3080               	movlw	128
  4006     16CB  00F8               	movwf	clcd_print@addr
  4007     16CC  160A  118A  2615  160A  118A  	fcall	_clcd_print
  4008     16D1                     l3178:
  4009     16D1  3027               	movlw	low (STR_32| (0+32768))
  4010     16D2  00F6               	movwf	clcd_print@str
  4011     16D3  3091               	movlw	high (STR_32| (0+32768))
  4012     16D4  00F7               	movwf	clcd_print@str+1
  4013     16D5  30C0               	movlw	192
  4014     16D6  00F8               	movwf	clcd_print@addr
  4015     16D7  160A  118A  2615  160A  118A  	fcall	_clcd_print
  4016     16DC                     l3180:
  4017     16DC  3000               	movlw	low (STR_33| (0+32768))
  4018     16DD  00F6               	movwf	clcd_print@str
  4019     16DE  3090               	movlw	high (STR_33| (0+32768))
  4020     16DF  00F7               	movwf	clcd_print@str+1
  4021     16E0  30D0               	movlw	208
  4022     16E1  00F8               	movwf	clcd_print@addr
  4023     16E2  160A  118A  2615  160A  118A  	fcall	_clcd_print
  4024     16E7                     l3182:
  4025     16E7  1283               	bcf	3,5	;RP0=0, select bank0
  4026     16E8  1303               	bcf	3,6	;RP1=0, select bank0
  4027     16E9  1507               	bsf	7,2	;volatile
  4028     16EA                     l3184:
  4029     16EA  1512               	bsf	18,2	;volatile
  4030     16EB                     l3186:
  4031     16EB  1087               	bcf	7,1	;volatile
  4032     16EC                     l216:
  4033     16EC  0008               	return
  4034     16ED                     __end_of_door_status_check:
  4035                           
  4036                           	psect	text6
  4037     072E                     __ptext6:	
  4038 ;; *************** function ___xxtofl *****************
  4039 ;; Defined at:
  4040 ;;		line 10 in file "C:\Program Files\Microchip\xc8\v2.46\pic\sources\c99\common\xxtofl.c"
  4041 ;; Parameters:    Size  Location     Type
  4042 ;;  sign            1    wreg     unsigned char 
  4043 ;;  val             4    2[COMMON] long 
  4044 ;; Auto vars:     Size  Location     Type
  4045 ;;  sign            1    0[BANK0 ] unsigned char 
  4046 ;;  arg             4    2[BANK0 ] unsigned long 
  4047 ;;  exp             1    1[BANK0 ] unsigned char 
  4048 ;; Return value:  Size  Location     Type
  4049 ;;                  4    2[COMMON] unsigned char 
  4050 ;; Registers used:
  4051 ;;		wreg, status,2, status,0, btemp+1
  4052 ;; Tracked objects:
  4053 ;;		On entry : 0/0
  4054 ;;		On exit  : 0/0
  4055 ;;		Unchanged: 0/0
  4056 ;; Data sizes:     COMMON   BANK0   BANK1   BANK3   BANK2
  4057 ;;      Params:         4       0       0       0       0
  4058 ;;      Locals:         0       6       0       0       0
  4059 ;;      Temps:          4       0       0       0       0
  4060 ;;      Totals:         8       6       0       0       0
  4061 ;;Total ram usage:       14 bytes
  4062 ;; Hardware stack levels used: 1
  4063 ;; Hardware stack levels required when called: 1
  4064 ;; This function calls:
  4065 ;;		Nothing
  4066 ;; This function is called by:
  4067 ;;		_run_program
  4068 ;; This function uses a non-reentrant model
  4069 ;;
  4070                           
  4071     072E                     ___xxtofl:	
  4072                           ;psect for function ___xxtofl
  4073                           
  4074                           
  4075                           ;incstack = 0
  4076                           ; Regs used in ___xxtofl: [wreg+status,2+status,0+btemp+1]
  4077                           ;___xxtofl@sign stored from wreg
  4078     072E  1283               	bcf	3,5	;RP0=0, select bank0
  4079     072F  1303               	bcf	3,6	;RP1=0, select bank0
  4080     0730  00A0               	movwf	___xxtofl@sign
  4081     0731                     l2576:
  4082     0731  0820               	movf	___xxtofl@sign,w
  4083     0732  1903               	btfsc	3,2
  4084     0733  2F35               	goto	u3271
  4085     0734  2F36               	goto	u3270
  4086     0735                     u3271:
  4087     0735  2F4A               	goto	l2582
  4088     0736                     u3270:
  4089     0736                     l2578:
  4090     0736  1FF5               	btfss	___xxtofl@val+3,7
  4091     0737  2F39               	goto	u3281
  4092     0738  2F3A               	goto	u3280
  4093     0739                     u3281:
  4094     0739  2F4A               	goto	l2582
  4095     073A                     u3280:
  4096     073A                     l2580:
  4097     073A  0972               	comf	___xxtofl@val,w
  4098     073B  00A2               	movwf	___xxtofl@arg
  4099     073C  0973               	comf	___xxtofl@val+1,w
  4100     073D  00A3               	movwf	___xxtofl@arg+1
  4101     073E  0974               	comf	___xxtofl@val+2,w
  4102     073F  00A4               	movwf	___xxtofl@arg+2
  4103     0740  0975               	comf	___xxtofl@val+3,w
  4104     0741  00A5               	movwf	___xxtofl@arg+3
  4105     0742  0AA2               	incf	___xxtofl@arg,f
  4106     0743  1903               	skipnz
  4107     0744  0AA3               	incf	___xxtofl@arg+1,f
  4108     0745  1903               	skipnz
  4109     0746  0AA4               	incf	___xxtofl@arg+2,f
  4110     0747  1903               	skipnz
  4111     0748  0AA5               	incf	___xxtofl@arg+3,f
  4112     0749  2F52               	goto	l835
  4113     074A                     l2582:
  4114     074A  0875               	movf	___xxtofl@val+3,w
  4115     074B  00A5               	movwf	___xxtofl@arg+3
  4116     074C  0874               	movf	___xxtofl@val+2,w
  4117     074D  00A4               	movwf	___xxtofl@arg+2
  4118     074E  0873               	movf	___xxtofl@val+1,w
  4119     074F  00A3               	movwf	___xxtofl@arg+1
  4120     0750  0872               	movf	___xxtofl@val,w
  4121     0751  00A2               	movwf	___xxtofl@arg
  4122     0752                     l835:
  4123     0752  0875               	movf	___xxtofl@val+3,w
  4124     0753  0474               	iorwf	___xxtofl@val+2,w
  4125     0754  0473               	iorwf	___xxtofl@val+1,w
  4126     0755  0472               	iorwf	___xxtofl@val,w
  4127     0756  1D03               	skipz
  4128     0757  2F59               	goto	u3291
  4129     0758  2F5A               	goto	u3290
  4130     0759                     u3291:
  4131     0759  2F63               	goto	l2588
  4132     075A                     u3290:
  4133     075A                     l2584:
  4134     075A  3000               	movlw	0
  4135     075B  00F5               	movwf	?___xxtofl+3
  4136     075C  3000               	movlw	0
  4137     075D  00F4               	movwf	?___xxtofl+2
  4138     075E  3000               	movlw	0
  4139     075F  00F3               	movwf	?___xxtofl+1
  4140     0760  3000               	movlw	0
  4141     0761  00F2               	movwf	?___xxtofl
  4142     0762  2FE7               	goto	l837
  4143     0763                     l2588:
  4144     0763  3096               	movlw	150
  4145     0764  00A1               	movwf	___xxtofl@exp
  4146     0765  2F73               	goto	l2594
  4147     0766                     l2590:
  4148     0766  3001               	movlw	1
  4149     0767  00FF               	movwf	btemp+1
  4150     0768  087F               	movf	btemp+1,w
  4151     0769  07A1               	addwf	___xxtofl@exp,f
  4152     076A                     l2592:
  4153     076A  3001               	movlw	1
  4154     076B                     u3305:
  4155     076B  1003               	clrc
  4156     076C  0CA5               	rrf	___xxtofl@arg+3,f
  4157     076D  0CA4               	rrf	___xxtofl@arg+2,f
  4158     076E  0CA3               	rrf	___xxtofl@arg+1,f
  4159     076F  0CA2               	rrf	___xxtofl@arg,f
  4160     0770  3EFF               	addlw	-1
  4161     0771  1D03               	skipz
  4162     0772  2F6B               	goto	u3305
  4163     0773                     l2594:
  4164     0773  30FE               	movlw	254
  4165     0774  0525               	andwf	___xxtofl@arg+3,w
  4166     0775  1D03               	btfss	3,2
  4167     0776  2F78               	goto	u3311
  4168     0777  2F79               	goto	u3310
  4169     0778                     u3311:
  4170     0778  2F66               	goto	l2590
  4171     0779                     u3310:
  4172     0779  2F95               	goto	l2602
  4173     077A                     l2596:
  4174     077A  3001               	movlw	1
  4175     077B  00FF               	movwf	btemp+1
  4176     077C  087F               	movf	btemp+1,w
  4177     077D  07A1               	addwf	___xxtofl@exp,f
  4178     077E                     l2598:
  4179     077E  3001               	movlw	1
  4180     077F  07A2               	addwf	___xxtofl@arg,f
  4181     0780  3000               	movlw	0
  4182     0781  1803               	skipnc
  4183     0782  3001               	movlw	1
  4184     0783  07A3               	addwf	___xxtofl@arg+1,f
  4185     0784  3000               	movlw	0
  4186     0785  1803               	skipnc
  4187     0786  3001               	movlw	1
  4188     0787  07A4               	addwf	___xxtofl@arg+2,f
  4189     0788  3000               	movlw	0
  4190     0789  1803               	skipnc
  4191     078A  3001               	movlw	1
  4192     078B  07A5               	addwf	___xxtofl@arg+3,f
  4193     078C                     l2600:
  4194     078C  3001               	movlw	1
  4195     078D                     u3325:
  4196     078D  1003               	clrc
  4197     078E  0CA5               	rrf	___xxtofl@arg+3,f
  4198     078F  0CA4               	rrf	___xxtofl@arg+2,f
  4199     0790  0CA3               	rrf	___xxtofl@arg+1,f
  4200     0791  0CA2               	rrf	___xxtofl@arg,f
  4201     0792  3EFF               	addlw	-1
  4202     0793  1D03               	skipz
  4203     0794  2F8D               	goto	u3325
  4204     0795                     l2602:
  4205     0795  30FF               	movlw	255
  4206     0796  0525               	andwf	___xxtofl@arg+3,w
  4207     0797  1D03               	btfss	3,2
  4208     0798  2F9A               	goto	u3331
  4209     0799  2F9B               	goto	u3330
  4210     079A                     u3331:
  4211     079A  2F7A               	goto	l2596
  4212     079B                     u3330:
  4213     079B  2FA7               	goto	l2606
  4214     079C                     l2604:
  4215     079C  3001               	movlw	1
  4216     079D  02A1               	subwf	___xxtofl@exp,f
  4217     079E  3001               	movlw	1
  4218     079F  00F6               	movwf	??___xxtofl
  4219     07A0                     u3345:
  4220     07A0  1003               	clrc
  4221     07A1  0DA2               	rlf	___xxtofl@arg,f
  4222     07A2  0DA3               	rlf	___xxtofl@arg+1,f
  4223     07A3  0DA4               	rlf	___xxtofl@arg+2,f
  4224     07A4  0DA5               	rlf	___xxtofl@arg+3,f
  4225     07A5  0BF6               	decfsz	??___xxtofl,f
  4226     07A6  2FA0               	goto	u3345
  4227     07A7                     l2606:
  4228     07A7  1BA4               	btfsc	___xxtofl@arg+2,7
  4229     07A8  2FAA               	goto	u3351
  4230     07A9  2FAB               	goto	u3350
  4231     07AA                     u3351:
  4232     07AA  2FB1               	goto	l848
  4233     07AB                     u3350:
  4234     07AB                     l2608:
  4235     07AB  3002               	movlw	2
  4236     07AC  0221               	subwf	___xxtofl@exp,w
  4237     07AD  1803               	skipnc
  4238     07AE  2FB0               	goto	u3361
  4239     07AF  2FB1               	goto	u3360
  4240     07B0                     u3361:
  4241     07B0  2F9C               	goto	l2604
  4242     07B1                     u3360:
  4243     07B1                     l848:
  4244     07B1  1821               	btfsc	___xxtofl@exp,0
  4245     07B2  2FB4               	goto	u3371
  4246     07B3  2FB5               	goto	u3370
  4247     07B4                     u3371:
  4248     07B4  2FBD               	goto	l849
  4249     07B5                     u3370:
  4250     07B5                     l2610:
  4251     07B5  30FF               	movlw	255
  4252     07B6  05A2               	andwf	___xxtofl@arg,f
  4253     07B7  30FF               	movlw	255
  4254     07B8  05A3               	andwf	___xxtofl@arg+1,f
  4255     07B9  307F               	movlw	127
  4256     07BA  05A4               	andwf	___xxtofl@arg+2,f
  4257     07BB  30FF               	movlw	255
  4258     07BC  05A5               	andwf	___xxtofl@arg+3,f
  4259     07BD                     l849:
  4260     07BD  1003               	clrc
  4261     07BE  0CA1               	rrf	___xxtofl@exp,f
  4262     07BF                     l2612:
  4263     07BF  0821               	movf	___xxtofl@exp,w
  4264     07C0  00F6               	movwf	??___xxtofl
  4265     07C1  01F7               	clrf	??___xxtofl+1
  4266     07C2  01F8               	clrf	??___xxtofl+2
  4267     07C3  01F9               	clrf	??___xxtofl+3
  4268     07C4  3018               	movlw	24
  4269     07C5                     u3385:
  4270     07C5  1003               	clrc
  4271     07C6  0DF6               	rlf	??___xxtofl,f
  4272     07C7  0DF7               	rlf	??___xxtofl+1,f
  4273     07C8  0DF8               	rlf	??___xxtofl+2,f
  4274     07C9  0DF9               	rlf	??___xxtofl+3,f
  4275     07CA                     u3380:
  4276     07CA  3EFF               	addlw	-1
  4277     07CB  1D03               	skipz
  4278     07CC  2FC5               	goto	u3385
  4279     07CD  0876               	movf	??___xxtofl,w
  4280     07CE  04A2               	iorwf	___xxtofl@arg,f
  4281     07CF  0877               	movf	??___xxtofl+1,w
  4282     07D0  04A3               	iorwf	___xxtofl@arg+1,f
  4283     07D1  0878               	movf	??___xxtofl+2,w
  4284     07D2  04A4               	iorwf	___xxtofl@arg+2,f
  4285     07D3  0879               	movf	??___xxtofl+3,w
  4286     07D4  04A5               	iorwf	___xxtofl@arg+3,f
  4287     07D5                     l2614:
  4288     07D5  0820               	movf	___xxtofl@sign,w
  4289     07D6  1903               	btfsc	3,2
  4290     07D7  2FD9               	goto	u3391
  4291     07D8  2FDA               	goto	u3390
  4292     07D9                     u3391:
  4293     07D9  2FDF               	goto	l2620
  4294     07DA                     u3390:
  4295     07DA                     l2616:
  4296     07DA  1FF5               	btfss	___xxtofl@val+3,7
  4297     07DB  2FDD               	goto	u3401
  4298     07DC  2FDE               	goto	u3400
  4299     07DD                     u3401:
  4300     07DD  2FDF               	goto	l2620
  4301     07DE                     u3400:
  4302     07DE                     l2618:
  4303     07DE  17A5               	bsf	___xxtofl@arg+3,7
  4304     07DF                     l2620:
  4305     07DF  0825               	movf	___xxtofl@arg+3,w
  4306     07E0  00F5               	movwf	?___xxtofl+3
  4307     07E1  0824               	movf	___xxtofl@arg+2,w
  4308     07E2  00F4               	movwf	?___xxtofl+2
  4309     07E3  0823               	movf	___xxtofl@arg+1,w
  4310     07E4  00F3               	movwf	?___xxtofl+1
  4311     07E5  0822               	movf	___xxtofl@arg,w
  4312     07E6  00F2               	movwf	?___xxtofl
  4313     07E7                     l837:
  4314     07E7  0008               	return
  4315     07E8                     __end_of___xxtofl:
  4316                           
  4317                           	psect	text7
  4318     15C7                     __ptext7:	
  4319 ;; *************** function ___wmul *****************
  4320 ;; Defined at:
  4321 ;;		line 15 in file "C:\Program Files\Microchip\xc8\v2.46\pic\sources\c99\common\Umul16.c"
  4322 ;; Parameters:    Size  Location     Type
  4323 ;;  multiplier      2    2[COMMON] unsigned int 
  4324 ;;  multiplicand    2    4[COMMON] unsigned int 
  4325 ;; Auto vars:     Size  Location     Type
  4326 ;;  product         2    6[COMMON] unsigned int 
  4327 ;; Return value:  Size  Location     Type
  4328 ;;                  2    2[COMMON] unsigned int 
  4329 ;; Registers used:
  4330 ;;		wreg, status,2, status,0
  4331 ;; Tracked objects:
  4332 ;;		On entry : 0/0
  4333 ;;		On exit  : 0/0
  4334 ;;		Unchanged: 0/0
  4335 ;; Data sizes:     COMMON   BANK0   BANK1   BANK3   BANK2
  4336 ;;      Params:         4       0       0       0       0
  4337 ;;      Locals:         2       0       0       0       0
  4338 ;;      Temps:          0       0       0       0       0
  4339 ;;      Totals:         6       0       0       0       0
  4340 ;;Total ram usage:        6 bytes
  4341 ;; Hardware stack levels used: 1
  4342 ;; Hardware stack levels required when called: 1
  4343 ;; This function calls:
  4344 ;;		Nothing
  4345 ;; This function is called by:
  4346 ;;		_run_program
  4347 ;; This function uses a non-reentrant model
  4348 ;;
  4349                           
  4350     15C7                     ___wmul:	
  4351                           ;psect for function ___wmul
  4352                           
  4353     15C7                     l2274:	
  4354                           ;incstack = 0
  4355                           ; Regs used in ___wmul: [wreg+status,2+status,0]
  4356                           
  4357     15C7  01F6               	clrf	___wmul@product
  4358     15C8  01F7               	clrf	___wmul@product+1
  4359     15C9                     l2276:
  4360     15C9  1C72               	btfss	___wmul@multiplier,0
  4361     15CA  2DCC               	goto	u2501
  4362     15CB  2DCD               	goto	u2500
  4363     15CC                     u2501:
  4364     15CC  2DD3               	goto	l394
  4365     15CD                     u2500:
  4366     15CD                     l2278:
  4367     15CD  0874               	movf	___wmul@multiplicand,w
  4368     15CE  07F6               	addwf	___wmul@product,f
  4369     15CF  1803               	skipnc
  4370     15D0  0AF7               	incf	___wmul@product+1,f
  4371     15D1  0875               	movf	___wmul@multiplicand+1,w
  4372     15D2  07F7               	addwf	___wmul@product+1,f
  4373     15D3                     l394:
  4374     15D3  3001               	movlw	1
  4375     15D4                     u2515:
  4376     15D4  1003               	clrc
  4377     15D5  0DF4               	rlf	___wmul@multiplicand,f
  4378     15D6  0DF5               	rlf	___wmul@multiplicand+1,f
  4379     15D7  3EFF               	addlw	-1
  4380     15D8  1D03               	skipz
  4381     15D9  2DD4               	goto	u2515
  4382     15DA                     l2280:
  4383     15DA  3001               	movlw	1
  4384     15DB                     u2525:
  4385     15DB  1003               	clrc
  4386     15DC  0CF3               	rrf	___wmul@multiplier+1,f
  4387     15DD  0CF2               	rrf	___wmul@multiplier,f
  4388     15DE  3EFF               	addlw	-1
  4389     15DF  1D03               	skipz
  4390     15E0  2DDB               	goto	u2525
  4391     15E1                     l2282:
  4392     15E1  0872               	movf	___wmul@multiplier,w
  4393     15E2  0473               	iorwf	___wmul@multiplier+1,w
  4394     15E3  1D03               	btfss	3,2
  4395     15E4  2DE6               	goto	u2531
  4396     15E5  2DE7               	goto	u2530
  4397     15E6                     u2531:
  4398     15E6  2DC9               	goto	l2276
  4399     15E7                     u2530:
  4400     15E7                     l2284:
  4401     15E7  0877               	movf	___wmul@product+1,w
  4402     15E8  00F3               	movwf	?___wmul+1
  4403     15E9  0876               	movf	___wmul@product,w
  4404     15EA  00F2               	movwf	?___wmul
  4405     15EB                     l396:
  4406     15EB  0008               	return
  4407     15EC                     __end_of___wmul:
  4408                           
  4409                           	psect	text8
  4410     08A2                     __ptext8:	
  4411 ;; *************** function ___fltol *****************
  4412 ;; Defined at:
  4413 ;;		line 43 in file "C:\Program Files\Microchip\xc8\v2.46\pic\sources\c99\common\fltol.c"
  4414 ;; Parameters:    Size  Location     Type
  4415 ;;  f1              4   32[BANK0 ] unsigned int 
  4416 ;; Auto vars:     Size  Location     Type
  4417 ;;  exp1            1   41[BANK0 ] unsigned char 
  4418 ;;  sign1           1   40[BANK0 ] unsigned char 
  4419 ;; Return value:  Size  Location     Type
  4420 ;;                  4   32[BANK0 ] long 
  4421 ;; Registers used:
  4422 ;;		wreg, status,2, status,0, btemp+1
  4423 ;; Tracked objects:
  4424 ;;		On entry : 0/0
  4425 ;;		On exit  : 0/0
  4426 ;;		Unchanged: 0/0
  4427 ;; Data sizes:     COMMON   BANK0   BANK1   BANK3   BANK2
  4428 ;;      Params:         0       4       0       0       0
  4429 ;;      Locals:         0       2       0       0       0
  4430 ;;      Temps:          0       4       0       0       0
  4431 ;;      Totals:         0      10       0       0       0
  4432 ;;Total ram usage:       10 bytes
  4433 ;; Hardware stack levels used: 1
  4434 ;; Hardware stack levels required when called: 1
  4435 ;; This function calls:
  4436 ;;		Nothing
  4437 ;; This function is called by:
  4438 ;;		_run_program
  4439 ;; This function uses a non-reentrant model
  4440 ;;
  4441                           
  4442     08A2                     ___fltol:	
  4443                           ;psect for function ___fltol
  4444                           
  4445     08A2                     l2390:	
  4446                           ;incstack = 0
  4447                           ; Regs used in ___fltol: [wreg+status,2+status,0+btemp+1]
  4448                           
  4449     08A2  1003               	clrc
  4450     08A3  1283               	bcf	3,5	;RP0=0, select bank0
  4451     08A4  1303               	bcf	3,6	;RP1=0, select bank0
  4452     08A5  0D42               	rlf	___fltol@f1+2,w
  4453     08A6  0D43               	rlf	___fltol@f1+3,w
  4454     08A7  00C9               	movwf	___fltol@exp1
  4455     08A8  0849               	movf	___fltol@exp1,w
  4456     08A9  1D03               	btfss	3,2
  4457     08AA  28AC               	goto	u2801
  4458     08AB  28AD               	goto	u2800
  4459     08AC                     u2801:
  4460     08AC  28B6               	goto	l2396
  4461     08AD                     u2800:
  4462     08AD                     l2392:
  4463     08AD  3000               	movlw	0
  4464     08AE  00C3               	movwf	?___fltol+3
  4465     08AF  3000               	movlw	0
  4466     08B0  00C2               	movwf	?___fltol+2
  4467     08B1  3000               	movlw	0
  4468     08B2  00C1               	movwf	?___fltol+1
  4469     08B3  3000               	movlw	0
  4470     08B4  00C0               	movwf	?___fltol
  4471     08B5  2919               	goto	l588
  4472     08B6                     l2396:
  4473     08B6  0840               	movf	___fltol@f1,w
  4474     08B7  00C4               	movwf	??___fltol
  4475     08B8  0841               	movf	___fltol@f1+1,w
  4476     08B9  00C5               	movwf	??___fltol+1
  4477     08BA  0842               	movf	___fltol@f1+2,w
  4478     08BB  00C6               	movwf	??___fltol+2
  4479     08BC  0843               	movf	___fltol@f1+3,w
  4480     08BD  00C7               	movwf	??___fltol+3
  4481     08BE  301F               	movlw	31
  4482     08BF                     u2815:
  4483     08BF  1003               	clrc
  4484     08C0  0CC7               	rrf	??___fltol+3,f
  4485     08C1  0CC6               	rrf	??___fltol+2,f
  4486     08C2  0CC5               	rrf	??___fltol+1,f
  4487     08C3  0CC4               	rrf	??___fltol,f
  4488     08C4                     u2810:
  4489     08C4  3EFF               	addlw	-1
  4490     08C5  1D03               	skipz
  4491     08C6  28BF               	goto	u2815
  4492     08C7  0844               	movf	??___fltol,w
  4493     08C8  00C8               	movwf	___fltol@sign1
  4494     08C9                     l2398:
  4495     08C9  17C2               	bsf	___fltol@f1+2,7
  4496     08CA                     l2400:
  4497     08CA  30FF               	movlw	255
  4498     08CB  05C0               	andwf	___fltol@f1,f
  4499     08CC  30FF               	movlw	255
  4500     08CD  05C1               	andwf	___fltol@f1+1,f
  4501     08CE  30FF               	movlw	255
  4502     08CF  05C2               	andwf	___fltol@f1+2,f
  4503     08D0  3000               	movlw	0
  4504     08D1  05C3               	andwf	___fltol@f1+3,f
  4505     08D2                     l2402:
  4506     08D2  3096               	movlw	150
  4507     08D3  02C9               	subwf	___fltol@exp1,f
  4508     08D4                     l2404:
  4509     08D4  1FC9               	btfss	___fltol@exp1,7
  4510     08D5  28D7               	goto	u2821
  4511     08D6  28D8               	goto	u2820
  4512     08D7                     u2821:
  4513     08D7  28F2               	goto	l2416
  4514     08D8                     u2820:
  4515     08D8                     l2406:
  4516     08D8  0849               	movf	___fltol@exp1,w
  4517     08D9  3A80               	xorlw	128
  4518     08DA  3E97               	addlw	151
  4519     08DB  1803               	skipnc
  4520     08DC  28DE               	goto	u2831
  4521     08DD  28DF               	goto	u2830
  4522     08DE                     u2831:
  4523     08DE  28E0               	goto	l2412
  4524     08DF                     u2830:
  4525     08DF  28AD               	goto	l2392
  4526     08E0                     l2412:
  4527     08E0  3001               	movlw	1
  4528     08E1                     u2845:
  4529     08E1  1003               	clrc
  4530     08E2  0CC3               	rrf	___fltol@f1+3,f
  4531     08E3  0CC2               	rrf	___fltol@f1+2,f
  4532     08E4  0CC1               	rrf	___fltol@f1+1,f
  4533     08E5  0CC0               	rrf	___fltol@f1,f
  4534     08E6  3EFF               	addlw	-1
  4535     08E7  1D03               	skipz
  4536     08E8  28E1               	goto	u2845
  4537     08E9                     l2414:
  4538     08E9  3001               	movlw	1
  4539     08EA  00FF               	movwf	btemp+1
  4540     08EB  087F               	movf	btemp+1,w
  4541     08EC  07C9               	addwf	___fltol@exp1,f
  4542     08ED  1D03               	btfss	3,2
  4543     08EE  28F0               	goto	u2851
  4544     08EF  28F1               	goto	u2850
  4545     08F0                     u2851:
  4546     08F0  28E0               	goto	l2412
  4547     08F1                     u2850:
  4548     08F1  2909               	goto	l2424
  4549     08F2                     l2416:
  4550     08F2  3020               	movlw	32
  4551     08F3  0249               	subwf	___fltol@exp1,w
  4552     08F4  1C03               	skipc
  4553     08F5  28F7               	goto	u2861
  4554     08F6  28F8               	goto	u2860
  4555     08F7                     u2861:
  4556     08F7  2904               	goto	l595
  4557     08F8                     u2860:
  4558     08F8  28AD               	goto	l2392
  4559     08F9                     l2422:
  4560     08F9  3001               	movlw	1
  4561     08FA  00C4               	movwf	??___fltol
  4562     08FB                     u2875:
  4563     08FB  1003               	clrc
  4564     08FC  0DC0               	rlf	___fltol@f1,f
  4565     08FD  0DC1               	rlf	___fltol@f1+1,f
  4566     08FE  0DC2               	rlf	___fltol@f1+2,f
  4567     08FF  0DC3               	rlf	___fltol@f1+3,f
  4568     0900  0BC4               	decfsz	??___fltol,f
  4569     0901  28FB               	goto	u2875
  4570     0902  3001               	movlw	1
  4571     0903  02C9               	subwf	___fltol@exp1,f
  4572     0904                     l595:
  4573     0904  0849               	movf	___fltol@exp1,w
  4574     0905  1D03               	btfss	3,2
  4575     0906  2908               	goto	u2881
  4576     0907  2909               	goto	u2880
  4577     0908                     u2881:
  4578     0908  28F9               	goto	l2422
  4579     0909                     u2880:
  4580     0909                     l2424:
  4581     0909  0848               	movf	___fltol@sign1,w
  4582     090A  1903               	btfsc	3,2
  4583     090B  290D               	goto	u2891
  4584     090C  290E               	goto	u2890
  4585     090D                     u2891:
  4586     090D  2919               	goto	l598
  4587     090E                     u2890:
  4588     090E                     l2426:
  4589     090E  09C0               	comf	___fltol@f1,f
  4590     090F  09C1               	comf	___fltol@f1+1,f
  4591     0910  09C2               	comf	___fltol@f1+2,f
  4592     0911  09C3               	comf	___fltol@f1+3,f
  4593     0912  0AC0               	incf	___fltol@f1,f
  4594     0913  1903               	skipnz
  4595     0914  0AC1               	incf	___fltol@f1+1,f
  4596     0915  1903               	skipnz
  4597     0916  0AC2               	incf	___fltol@f1+2,f
  4598     0917  1903               	skipnz
  4599     0918  0AC3               	incf	___fltol@f1+3,f
  4600     0919                     l598:
  4601     0919                     l588:
  4602     0919  0008               	return
  4603     091A                     __end_of___fltol:
  4604                           
  4605                           	psect	text9
  4606     15A3                     __ptext9:	
  4607 ;; *************** function ___flsub *****************
  4608 ;; Defined at:
  4609 ;;		line 242 in file "C:\Program Files\Microchip\xc8\v2.46\pic\sources\c99\common\sprcadd.c"
  4610 ;; Parameters:    Size  Location     Type
  4611 ;;  a               4   32[BANK0 ] long 
  4612 ;;  b               4   36[BANK0 ] long 
  4613 ;; Auto vars:     Size  Location     Type
  4614 ;;		None
  4615 ;; Return value:  Size  Location     Type
  4616 ;;                  4   32[BANK0 ] long 
  4617 ;; Registers used:
  4618 ;;		wreg, status,2, status,0, btemp+1, pclath, cstack
  4619 ;; Tracked objects:
  4620 ;;		On entry : 0/0
  4621 ;;		On exit  : 0/0
  4622 ;;		Unchanged: 0/0
  4623 ;; Data sizes:     COMMON   BANK0   BANK1   BANK3   BANK2
  4624 ;;      Params:         0       8       0       0       0
  4625 ;;      Locals:         0       0       0       0       0
  4626 ;;      Temps:          0       0       0       0       0
  4627 ;;      Totals:         0       8       0       0       0
  4628 ;;Total ram usage:        8 bytes
  4629 ;; Hardware stack levels used: 1
  4630 ;; Hardware stack levels required when called: 2
  4631 ;; This function calls:
  4632 ;;		___fladd
  4633 ;; This function is called by:
  4634 ;;		_run_program
  4635 ;; This function uses a non-reentrant model
  4636 ;;
  4637                           
  4638     15A3                     ___flsub:	
  4639                           ;psect for function ___flsub
  4640                           
  4641     15A3                     l2428:	
  4642                           ;incstack = 0
  4643                           ; Regs used in ___flsub: [wreg+status,2+status,0+btemp+1+pclath+cstack]
  4644                           
  4645     15A3  3080               	movlw	128
  4646     15A4  1283               	bcf	3,5	;RP0=0, select bank0
  4647     15A5  1303               	bcf	3,6	;RP1=0, select bank0
  4648     15A6  06C3               	xorwf	___flsub@a+3,f
  4649     15A7                     l2430:
  4650     15A7  0847               	movf	___flsub@b+3,w
  4651     15A8  00F5               	movwf	___fladd@b+3
  4652     15A9  0846               	movf	___flsub@b+2,w
  4653     15AA  00F4               	movwf	___fladd@b+2
  4654     15AB  0845               	movf	___flsub@b+1,w
  4655     15AC  00F3               	movwf	___fladd@b+1
  4656     15AD  0844               	movf	___flsub@b,w
  4657     15AE  00F2               	movwf	___fladd@b
  4658     15AF  0843               	movf	___flsub@a+3,w
  4659     15B0  00F9               	movwf	___fladd@a+3
  4660     15B1  0842               	movf	___flsub@a+2,w
  4661     15B2  00F8               	movwf	___fladd@a+2
  4662     15B3  0841               	movf	___flsub@a+1,w
  4663     15B4  00F7               	movwf	___fladd@a+1
  4664     15B5  0840               	movf	___flsub@a,w
  4665     15B6  00F6               	movwf	___fladd@a
  4666     15B7  120A  158A  25A8  160A  118A  	fcall	___fladd
  4667     15BC  0875               	movf	?___fladd+3,w
  4668     15BD  1283               	bcf	3,5	;RP0=0, select bank0
  4669     15BE  1303               	bcf	3,6	;RP1=0, select bank0
  4670     15BF  00C3               	movwf	?___flsub+3
  4671     15C0  0874               	movf	?___fladd+2,w
  4672     15C1  00C2               	movwf	?___flsub+2
  4673     15C2  0873               	movf	?___fladd+1,w
  4674     15C3  00C1               	movwf	?___flsub+1
  4675     15C4  0872               	movf	?___fladd,w
  4676     15C5  00C0               	movwf	?___flsub
  4677     15C6                     l741:
  4678     15C6  0008               	return
  4679     15C7                     __end_of___flsub:
  4680                           
  4681                           	psect	text10
  4682     0DA8                     __ptext10:	
  4683 ;; *************** function ___fladd *****************
  4684 ;; Defined at:
  4685 ;;		line 10 in file "C:\Program Files\Microchip\xc8\v2.46\pic\sources\c99\common\sprcadd.c"
  4686 ;; Parameters:    Size  Location     Type
  4687 ;;  b               4    2[COMMON] long 
  4688 ;;  a               4    6[COMMON] long 
  4689 ;; Auto vars:     Size  Location     Type
  4690 ;;  grs             1   11[BANK0 ] unsigned char 
  4691 ;;  bexp            1   10[BANK0 ] unsigned char 
  4692 ;;  aexp            1    9[BANK0 ] unsigned char 
  4693 ;;  signs           1    8[BANK0 ] unsigned char 
  4694 ;; Return value:  Size  Location     Type
  4695 ;;                  4    2[COMMON] unsigned char 
  4696 ;; Registers used:
  4697 ;;		wreg, status,2, status,0, btemp+1
  4698 ;; Tracked objects:
  4699 ;;		On entry : 0/0
  4700 ;;		On exit  : 0/0
  4701 ;;		Unchanged: 0/0
  4702 ;; Data sizes:     COMMON   BANK0   BANK1   BANK3   BANK2
  4703 ;;      Params:         8       0       0       0       0
  4704 ;;      Locals:         0       4       0       0       0
  4705 ;;      Temps:          0       8       0       0       0
  4706 ;;      Totals:         8      12       0       0       0
  4707 ;;Total ram usage:       20 bytes
  4708 ;; Hardware stack levels used: 1
  4709 ;; Hardware stack levels required when called: 1
  4710 ;; This function calls:
  4711 ;;		Nothing
  4712 ;; This function is called by:
  4713 ;;		___flsub
  4714 ;; This function uses a non-reentrant model
  4715 ;;
  4716                           
  4717     0DA8                     ___fladd:	
  4718                           ;psect for function ___fladd
  4719                           
  4720     0DA8                     l2016:	
  4721                           ;incstack = 0
  4722                           ; Regs used in ___fladd: [wreg+status,2+status,0+btemp+1]
  4723                           
  4724     0DA8  0875               	movf	___fladd@b+3,w
  4725     0DA9  3980               	andlw	128
  4726     0DAA  1283               	bcf	3,5	;RP0=0, select bank0
  4727     0DAB  1303               	bcf	3,6	;RP1=0, select bank0
  4728     0DAC  00A8               	movwf	___fladd@signs
  4729     0DAD                     l2018:
  4730     0DAD  0875               	movf	___fladd@b+3,w
  4731     0DAE  00A0               	movwf	??___fladd
  4732     0DAF  0720               	addwf	??___fladd,w
  4733     0DB0  00AA               	movwf	___fladd@bexp
  4734     0DB1                     l2020:
  4735     0DB1  1FF4               	btfss	___fladd@b+2,7
  4736     0DB2  2DB4               	goto	u1991
  4737     0DB3  2DB5               	goto	u1990
  4738     0DB4                     u1991:
  4739     0DB4  2DB6               	goto	l2024
  4740     0DB5                     u1990:
  4741     0DB5                     l2022:
  4742     0DB5  142A               	bsf	___fladd@bexp,0
  4743     0DB6                     l2024:
  4744     0DB6  082A               	movf	___fladd@bexp,w
  4745     0DB7  1903               	btfsc	3,2
  4746     0DB8  2DBA               	goto	u2001
  4747     0DB9  2DBB               	goto	u2000
  4748     0DBA                     u2001:
  4749     0DBA  2DCB               	goto	l2034
  4750     0DBB                     u2000:
  4751     0DBB                     l2026:
  4752     0DBB  0A2A               	incf	___fladd@bexp,w
  4753     0DBC  1D03               	btfss	3,2
  4754     0DBD  2DBF               	goto	u2011
  4755     0DBE  2DC0               	goto	u2010
  4756     0DBF                     u2011:
  4757     0DBF  2DC8               	goto	l2030
  4758     0DC0                     u2010:
  4759     0DC0                     l2028:
  4760     0DC0  3000               	movlw	0
  4761     0DC1  00F5               	movwf	___fladd@b+3
  4762     0DC2  3000               	movlw	0
  4763     0DC3  00F4               	movwf	___fladd@b+2
  4764     0DC4  3000               	movlw	0
  4765     0DC5  00F3               	movwf	___fladd@b+1
  4766     0DC6  3000               	movlw	0
  4767     0DC7  00F2               	movwf	___fladd@b
  4768     0DC8                     l2030:
  4769     0DC8  17F4               	bsf	___fladd@b+2,7
  4770     0DC9                     l2032:
  4771     0DC9  01F5               	clrf	___fladd@b+3
  4772     0DCA  2DD3               	goto	l2036
  4773     0DCB                     l2034:
  4774     0DCB  3000               	movlw	0
  4775     0DCC  00F5               	movwf	___fladd@b+3
  4776     0DCD  3000               	movlw	0
  4777     0DCE  00F4               	movwf	___fladd@b+2
  4778     0DCF  3000               	movlw	0
  4779     0DD0  00F3               	movwf	___fladd@b+1
  4780     0DD1  3000               	movlw	0
  4781     0DD2  00F2               	movwf	___fladd@b
  4782     0DD3                     l2036:
  4783     0DD3  0879               	movf	___fladd@a+3,w
  4784     0DD4  3980               	andlw	128
  4785     0DD5  00A9               	movwf	___fladd@aexp
  4786     0DD6                     l2038:
  4787     0DD6  0829               	movf	___fladd@aexp,w
  4788     0DD7  0628               	xorwf	___fladd@signs,w
  4789     0DD8  1903               	skipnz
  4790     0DD9  2DDB               	goto	u2021
  4791     0DDA  2DDC               	goto	u2020
  4792     0DDB                     u2021:
  4793     0DDB  2DDD               	goto	l2042
  4794     0DDC                     u2020:
  4795     0DDC                     l2040:
  4796     0DDC  1728               	bsf	___fladd@signs,6
  4797     0DDD                     l2042:
  4798     0DDD  0879               	movf	___fladd@a+3,w
  4799     0DDE  00A0               	movwf	??___fladd
  4800     0DDF  0720               	addwf	??___fladd,w
  4801     0DE0  00A9               	movwf	___fladd@aexp
  4802     0DE1                     l2044:
  4803     0DE1  1FF8               	btfss	___fladd@a+2,7
  4804     0DE2  2DE4               	goto	u2031
  4805     0DE3  2DE5               	goto	u2030
  4806     0DE4                     u2031:
  4807     0DE4  2DE6               	goto	l2048
  4808     0DE5                     u2030:
  4809     0DE5                     l2046:
  4810     0DE5  1429               	bsf	___fladd@aexp,0
  4811     0DE6                     l2048:
  4812     0DE6  0829               	movf	___fladd@aexp,w
  4813     0DE7  1903               	btfsc	3,2
  4814     0DE8  2DEA               	goto	u2041
  4815     0DE9  2DEB               	goto	u2040
  4816     0DEA                     u2041:
  4817     0DEA  2DFB               	goto	l2058
  4818     0DEB                     u2040:
  4819     0DEB                     l2050:
  4820     0DEB  0A29               	incf	___fladd@aexp,w
  4821     0DEC  1D03               	btfss	3,2
  4822     0DED  2DEF               	goto	u2051
  4823     0DEE  2DF0               	goto	u2050
  4824     0DEF                     u2051:
  4825     0DEF  2DF8               	goto	l2054
  4826     0DF0                     u2050:
  4827     0DF0                     l2052:
  4828     0DF0  3000               	movlw	0
  4829     0DF1  00F9               	movwf	___fladd@a+3
  4830     0DF2  3000               	movlw	0
  4831     0DF3  00F8               	movwf	___fladd@a+2
  4832     0DF4  3000               	movlw	0
  4833     0DF5  00F7               	movwf	___fladd@a+1
  4834     0DF6  3000               	movlw	0
  4835     0DF7  00F6               	movwf	___fladd@a
  4836     0DF8                     l2054:
  4837     0DF8  17F8               	bsf	___fladd@a+2,7
  4838     0DF9                     l2056:
  4839     0DF9  01F9               	clrf	___fladd@a+3
  4840     0DFA  2E03               	goto	l695
  4841     0DFB                     l2058:
  4842     0DFB  3000               	movlw	0
  4843     0DFC  00F9               	movwf	___fladd@a+3
  4844     0DFD  3000               	movlw	0
  4845     0DFE  00F8               	movwf	___fladd@a+2
  4846     0DFF  3000               	movlw	0
  4847     0E00  00F7               	movwf	___fladd@a+1
  4848     0E01  3000               	movlw	0
  4849     0E02  00F6               	movwf	___fladd@a
  4850     0E03                     l695:
  4851     0E03  082A               	movf	___fladd@bexp,w
  4852     0E04  0229               	subwf	___fladd@aexp,w
  4853     0E05  1803               	skipnc
  4854     0E06  2E08               	goto	u2061
  4855     0E07  2E09               	goto	u2060
  4856     0E08                     u2061:
  4857     0E08  2E2F               	goto	l2094
  4858     0E09                     u2060:
  4859     0E09                     l2060:
  4860     0E09  1F28               	btfss	___fladd@signs,6
  4861     0E0A  2E0C               	goto	u2071
  4862     0E0B  2E0D               	goto	u2070
  4863     0E0C                     u2071:
  4864     0E0C  2E11               	goto	l2064
  4865     0E0D                     u2070:
  4866     0E0D                     l2062:
  4867     0E0D  3080               	movlw	128
  4868     0E0E  00FF               	movwf	btemp+1
  4869     0E0F  087F               	movf	btemp+1,w
  4870     0E10  06A8               	xorwf	___fladd@signs,f
  4871     0E11                     l2064:
  4872     0E11  082A               	movf	___fladd@bexp,w
  4873     0E12  00AB               	movwf	___fladd@grs
  4874     0E13                     l2066:
  4875     0E13  0829               	movf	___fladd@aexp,w
  4876     0E14  00AA               	movwf	___fladd@bexp
  4877     0E15                     l2068:
  4878     0E15  082B               	movf	___fladd@grs,w
  4879     0E16  00A9               	movwf	___fladd@aexp
  4880     0E17                     l2070:
  4881     0E17  0872               	movf	___fladd@b,w
  4882     0E18  00AB               	movwf	___fladd@grs
  4883     0E19                     l2072:
  4884     0E19  0876               	movf	___fladd@a,w
  4885     0E1A  00F2               	movwf	___fladd@b
  4886     0E1B                     l2074:
  4887     0E1B  082B               	movf	___fladd@grs,w
  4888     0E1C  00F6               	movwf	___fladd@a
  4889     0E1D                     l2076:
  4890     0E1D  0873               	movf	___fladd@b+1,w
  4891     0E1E  00AB               	movwf	___fladd@grs
  4892     0E1F                     l2078:
  4893     0E1F  0877               	movf	___fladd@a+1,w
  4894     0E20  00F3               	movwf	___fladd@b+1
  4895     0E21                     l2080:
  4896     0E21  082B               	movf	___fladd@grs,w
  4897     0E22  00F7               	movwf	___fladd@a+1
  4898     0E23                     l2082:
  4899     0E23  0874               	movf	___fladd@b+2,w
  4900     0E24  00AB               	movwf	___fladd@grs
  4901     0E25                     l2084:
  4902     0E25  0878               	movf	___fladd@a+2,w
  4903     0E26  00F4               	movwf	___fladd@b+2
  4904     0E27                     l2086:
  4905     0E27  082B               	movf	___fladd@grs,w
  4906     0E28  00F8               	movwf	___fladd@a+2
  4907     0E29                     l2088:
  4908     0E29  0875               	movf	___fladd@b+3,w
  4909     0E2A  00AB               	movwf	___fladd@grs
  4910     0E2B                     l2090:
  4911     0E2B  0879               	movf	___fladd@a+3,w
  4912     0E2C  00F5               	movwf	___fladd@b+3
  4913     0E2D                     l2092:
  4914     0E2D  082B               	movf	___fladd@grs,w
  4915     0E2E  00F9               	movwf	___fladd@a+3
  4916     0E2F                     l2094:
  4917     0E2F  01AB               	clrf	___fladd@grs
  4918     0E30                     l2096:
  4919     0E30  0829               	movf	___fladd@aexp,w
  4920     0E31  00A0               	movwf	??___fladd
  4921     0E32  01A1               	clrf	??___fladd+1
  4922     0E33  0821               	movf	??___fladd+1,w
  4923     0E34  00A3               	movwf	??___fladd+3
  4924     0E35  082A               	movf	___fladd@bexp,w
  4925     0E36  0220               	subwf	??___fladd,w
  4926     0E37  00A2               	movwf	??___fladd+2
  4927     0E38  1C03               	skipc
  4928     0E39  03A3               	decf	??___fladd+3,f
  4929     0E3A  0823               	movf	??___fladd+3,w
  4930     0E3B  3A80               	xorlw	128
  4931     0E3C  00FF               	movwf	btemp+1
  4932     0E3D  3080               	movlw	128
  4933     0E3E  027F               	subwf	btemp+1,w
  4934     0E3F  1D03               	skipz
  4935     0E40  2E43               	goto	u2085
  4936     0E41  301A               	movlw	26
  4937     0E42  0222               	subwf	??___fladd+2,w
  4938     0E43                     u2085:
  4939     0E43  1C03               	skipc
  4940     0E44  2E46               	goto	u2081
  4941     0E45  2E47               	goto	u2080
  4942     0E46                     u2081:
  4943     0E46  2E7E               	goto	l2112
  4944     0E47                     u2080:
  4945     0E47                     l2098:
  4946     0E47  0875               	movf	___fladd@b+3,w
  4947     0E48  0474               	iorwf	___fladd@b+2,w
  4948     0E49  0473               	iorwf	___fladd@b+1,w
  4949     0E4A  0472               	iorwf	___fladd@b,w
  4950     0E4B  1D03               	skipz
  4951     0E4C  2E4E               	goto	u2091
  4952     0E4D  2E50               	goto	u2090
  4953     0E4E                     u2091:
  4954     0E4E  3001               	movlw	1
  4955     0E4F  2E51               	goto	u2100
  4956     0E50                     u2090:
  4957     0E50  3000               	movlw	0
  4958     0E51                     u2100:
  4959     0E51  1283               	bcf	3,5	;RP0=0, select bank0
  4960     0E52  1303               	bcf	3,6	;RP1=0, select bank0
  4961     0E53  00AB               	movwf	___fladd@grs
  4962     0E54  3000               	movlw	0
  4963     0E55  00F5               	movwf	___fladd@b+3
  4964     0E56  3000               	movlw	0
  4965     0E57  00F4               	movwf	___fladd@b+2
  4966     0E58  3000               	movlw	0
  4967     0E59  00F3               	movwf	___fladd@b+1
  4968     0E5A  3000               	movlw	0
  4969     0E5B  00F2               	movwf	___fladd@b
  4970     0E5C  0829               	movf	___fladd@aexp,w
  4971     0E5D  00AA               	movwf	___fladd@bexp
  4972     0E5E  2E86               	goto	l699
  4973     0E5F                     l701:
  4974     0E5F  1C2B               	btfss	___fladd@grs,0
  4975     0E60  2E62               	goto	u2111
  4976     0E61  2E63               	goto	u2110
  4977     0E62                     u2111:
  4978     0E62  2E6A               	goto	l2102
  4979     0E63                     u2110:
  4980     0E63                     l2100:
  4981     0E63  082B               	movf	___fladd@grs,w
  4982     0E64  00A0               	movwf	??___fladd
  4983     0E65  1003               	clrc
  4984     0E66  0C20               	rrf	??___fladd,w
  4985     0E67  3801               	iorlw	1
  4986     0E68  00AB               	movwf	___fladd@grs
  4987     0E69  2E6C               	goto	l2104
  4988     0E6A                     l2102:
  4989     0E6A  1003               	clrc
  4990     0E6B  0CAB               	rrf	___fladd@grs,f
  4991     0E6C                     l2104:
  4992     0E6C  1C72               	btfss	___fladd@b,0
  4993     0E6D  2E6F               	goto	u2121
  4994     0E6E  2E70               	goto	u2120
  4995     0E6F                     u2121:
  4996     0E6F  2E71               	goto	l2108
  4997     0E70                     u2120:
  4998     0E70                     l2106:
  4999     0E70  17AB               	bsf	___fladd@grs,7
  5000     0E71                     l2108:
  5001     0E71  3001               	movlw	1
  5002     0E72  00A0               	movwf	??___fladd
  5003     0E73                     u2135:
  5004     0E73  0D75               	rlf	___fladd@b+3,w
  5005     0E74  0CF5               	rrf	___fladd@b+3,f
  5006     0E75  0CF4               	rrf	___fladd@b+2,f
  5007     0E76  0CF3               	rrf	___fladd@b+1,f
  5008     0E77  0CF2               	rrf	___fladd@b,f
  5009     0E78  0BA0               	decfsz	??___fladd& (0+127),f
  5010     0E79  2E73               	goto	u2135
  5011     0E7A                     l2110:
  5012     0E7A  3001               	movlw	1
  5013     0E7B  00FF               	movwf	btemp+1
  5014     0E7C  087F               	movf	btemp+1,w
  5015     0E7D  07AA               	addwf	___fladd@bexp,f
  5016     0E7E                     l2112:
  5017     0E7E  1283               	bcf	3,5	;RP0=0, select bank0
  5018     0E7F  1303               	bcf	3,6	;RP1=0, select bank0
  5019     0E80  0829               	movf	___fladd@aexp,w
  5020     0E81  022A               	subwf	___fladd@bexp,w
  5021     0E82  1C03               	skipc
  5022     0E83  2E85               	goto	u2141
  5023     0E84  2E86               	goto	u2140
  5024     0E85                     u2141:
  5025     0E85  2E5F               	goto	l701
  5026     0E86                     u2140:
  5027     0E86                     l699:
  5028     0E86  1B28               	btfsc	___fladd@signs,6
  5029     0E87  2E89               	goto	u2151
  5030     0E88  2E8A               	goto	u2150
  5031     0E89                     u2151:
  5032     0E89  2ED3               	goto	l2138
  5033     0E8A                     u2150:
  5034     0E8A                     l2114:
  5035     0E8A  082A               	movf	___fladd@bexp,w
  5036     0E8B  1D03               	btfss	3,2
  5037     0E8C  2E8E               	goto	u2161
  5038     0E8D  2E8F               	goto	u2160
  5039     0E8E                     u2161:
  5040     0E8E  2E98               	goto	l2120
  5041     0E8F                     u2160:
  5042     0E8F                     l2116:
  5043     0E8F  3000               	movlw	0
  5044     0E90  00F5               	movwf	?___fladd+3
  5045     0E91  3000               	movlw	0
  5046     0E92  00F4               	movwf	?___fladd+2
  5047     0E93  3000               	movlw	0
  5048     0E94  00F3               	movwf	?___fladd+1
  5049     0E95  3000               	movlw	0
  5050     0E96  00F2               	movwf	?___fladd
  5051     0E97  2FFF               	goto	l708
  5052     0E98                     l2120:
  5053     0E98  0876               	movf	___fladd@a,w
  5054     0E99  07F2               	addwf	___fladd@b,f
  5055     0E9A  0877               	movf	___fladd@a+1,w
  5056     0E9B  1103               	clrz
  5057     0E9C  1803               	skipnc
  5058     0E9D  3E01               	addlw	1
  5059     0E9E  1903               	skipnz
  5060     0E9F  2EA1               	goto	u2171
  5061     0EA0  07F3               	addwf	___fladd@b+1,f
  5062     0EA1                     u2171:
  5063     0EA1  0878               	movf	___fladd@a+2,w
  5064     0EA2  1103               	clrz
  5065     0EA3  1803               	skipnc
  5066     0EA4  3E01               	addlw	1
  5067     0EA5  1903               	skipnz
  5068     0EA6  2EA8               	goto	u2172
  5069     0EA7  07F4               	addwf	___fladd@b+2,f
  5070     0EA8                     u2172:
  5071     0EA8  0879               	movf	___fladd@a+3,w
  5072     0EA9  1103               	clrz
  5073     0EAA  1803               	skipnc
  5074     0EAB  3E01               	addlw	1
  5075     0EAC  1903               	skipnz
  5076     0EAD  2EAF               	goto	u2173
  5077     0EAE  07F5               	addwf	___fladd@b+3,f
  5078     0EAF                     u2173:
  5079     0EAF                     l2122:
  5080     0EAF  1C75               	btfss	___fladd@b+3,0
  5081     0EB0  2EB2               	goto	u2181
  5082     0EB1  2EB3               	goto	u2180
  5083     0EB2                     u2181:
  5084     0EB2  2F87               	goto	l2174
  5085     0EB3                     u2180:
  5086     0EB3                     l2124:
  5087     0EB3  1C2B               	btfss	___fladd@grs,0
  5088     0EB4  2EB6               	goto	u2191
  5089     0EB5  2EB7               	goto	u2190
  5090     0EB6                     u2191:
  5091     0EB6  2EBE               	goto	l2128
  5092     0EB7                     u2190:
  5093     0EB7                     l2126:
  5094     0EB7  082B               	movf	___fladd@grs,w
  5095     0EB8  00A0               	movwf	??___fladd
  5096     0EB9  1003               	clrc
  5097     0EBA  0C20               	rrf	??___fladd,w
  5098     0EBB  3801               	iorlw	1
  5099     0EBC  00AB               	movwf	___fladd@grs
  5100     0EBD  2EC0               	goto	l2130
  5101     0EBE                     l2128:
  5102     0EBE  1003               	clrc
  5103     0EBF  0CAB               	rrf	___fladd@grs,f
  5104     0EC0                     l2130:
  5105     0EC0  1C72               	btfss	___fladd@b,0
  5106     0EC1  2EC3               	goto	u2201
  5107     0EC2  2EC4               	goto	u2200
  5108     0EC3                     u2201:
  5109     0EC3  2EC5               	goto	l2134
  5110     0EC4                     u2200:
  5111     0EC4                     l2132:
  5112     0EC4  17AB               	bsf	___fladd@grs,7
  5113     0EC5                     l2134:
  5114     0EC5  3001               	movlw	1
  5115     0EC6  00A0               	movwf	??___fladd
  5116     0EC7                     u2215:
  5117     0EC7  0D75               	rlf	___fladd@b+3,w
  5118     0EC8  0CF5               	rrf	___fladd@b+3,f
  5119     0EC9  0CF4               	rrf	___fladd@b+2,f
  5120     0ECA  0CF3               	rrf	___fladd@b+1,f
  5121     0ECB  0CF2               	rrf	___fladd@b,f
  5122     0ECC  0BA0               	decfsz	??___fladd& (0+127),f
  5123     0ECD  2EC7               	goto	u2215
  5124     0ECE                     l2136:
  5125     0ECE  3001               	movlw	1
  5126     0ECF  00FF               	movwf	btemp+1
  5127     0ED0  087F               	movf	btemp+1,w
  5128     0ED1  07AA               	addwf	___fladd@bexp,f
  5129     0ED2  2F87               	goto	l2174
  5130     0ED3                     l2138:
  5131     0ED3  0875               	movf	___fladd@b+3,w
  5132     0ED4  3A80               	xorlw	128
  5133     0ED5  00FF               	movwf	btemp+1
  5134     0ED6  0879               	movf	___fladd@a+3,w
  5135     0ED7  3A80               	xorlw	128
  5136     0ED8  027F               	subwf	btemp+1,w
  5137     0ED9  1D03               	skipz
  5138     0EDA  2EE5               	goto	u2223
  5139     0EDB  0878               	movf	___fladd@a+2,w
  5140     0EDC  0274               	subwf	___fladd@b+2,w
  5141     0EDD  1D03               	skipz
  5142     0EDE  2EE5               	goto	u2223
  5143     0EDF  0877               	movf	___fladd@a+1,w
  5144     0EE0  0273               	subwf	___fladd@b+1,w
  5145     0EE1  1D03               	skipz
  5146     0EE2  2EE5               	goto	u2223
  5147     0EE3  0876               	movf	___fladd@a,w
  5148     0EE4  0272               	subwf	___fladd@b,w
  5149     0EE5                     u2223:
  5150     0EE5  1803               	skipnc
  5151     0EE6  2EE8               	goto	u2221
  5152     0EE7  2EE9               	goto	u2220
  5153     0EE8                     u2221:
  5154     0EE8  2F41               	goto	l2150
  5155     0EE9                     u2220:
  5156     0EE9                     l2140:
  5157     0EE9  30FF               	movlw	255
  5158     0EEA  00A0               	movwf	??___fladd
  5159     0EEB  30FF               	movlw	255
  5160     0EEC  00A1               	movwf	??___fladd+1
  5161     0EED  30FF               	movlw	255
  5162     0EEE  00A2               	movwf	??___fladd+2
  5163     0EEF  30FF               	movlw	255
  5164     0EF0  00A3               	movwf	??___fladd+3
  5165     0EF1  0876               	movf	___fladd@a,w
  5166     0EF2  00A4               	movwf	??___fladd+4
  5167     0EF3  0877               	movf	___fladd@a+1,w
  5168     0EF4  00A5               	movwf	??___fladd+5
  5169     0EF5  0878               	movf	___fladd@a+2,w
  5170     0EF6  00A6               	movwf	??___fladd+6
  5171     0EF7  0879               	movf	___fladd@a+3,w
  5172     0EF8  00A7               	movwf	??___fladd+7
  5173     0EF9  0872               	movf	___fladd@b,w
  5174     0EFA  02A4               	subwf	??___fladd+4,f
  5175     0EFB  0873               	movf	___fladd@b+1,w
  5176     0EFC  1C03               	skipc
  5177     0EFD  0F73               	incfsz	___fladd@b+1,w
  5178     0EFE  2F00               	goto	u2231
  5179     0EFF  2F01               	goto	u2232
  5180     0F00                     u2231:
  5181     0F00  02A5               	subwf	??___fladd+5,f
  5182     0F01                     u2232:
  5183     0F01  0874               	movf	___fladd@b+2,w
  5184     0F02  1C03               	skipc
  5185     0F03  0F74               	incfsz	___fladd@b+2,w
  5186     0F04  2F06               	goto	u2233
  5187     0F05  2F07               	goto	u2234
  5188     0F06                     u2233:
  5189     0F06  02A6               	subwf	??___fladd+6,f
  5190     0F07                     u2234:
  5191     0F07  0875               	movf	___fladd@b+3,w
  5192     0F08  1C03               	skipc
  5193     0F09  0F75               	incfsz	___fladd@b+3,w
  5194     0F0A  2F0C               	goto	u2235
  5195     0F0B  2F0D               	goto	u2236
  5196     0F0C                     u2235:
  5197     0F0C  02A7               	subwf	??___fladd+7,f
  5198     0F0D                     u2236:
  5199     0F0D  0824               	movf	??___fladd+4,w
  5200     0F0E  07A0               	addwf	??___fladd,f
  5201     0F0F  0825               	movf	??___fladd+5,w
  5202     0F10  1803               	skipnc
  5203     0F11  0F25               	incfsz	??___fladd+5,w
  5204     0F12  2F14               	goto	u2240
  5205     0F13  2F15               	goto	u2241
  5206     0F14                     u2240:
  5207     0F14  07A1               	addwf	??___fladd+1,f
  5208     0F15                     u2241:
  5209     0F15  0826               	movf	??___fladd+6,w
  5210     0F16  1803               	skipnc
  5211     0F17  0F26               	incfsz	??___fladd+6,w
  5212     0F18  2F1A               	goto	u2242
  5213     0F19  2F1B               	goto	u2243
  5214     0F1A                     u2242:
  5215     0F1A  07A2               	addwf	??___fladd+2,f
  5216     0F1B                     u2243:
  5217     0F1B  0827               	movf	??___fladd+7,w
  5218     0F1C  1803               	skipnc
  5219     0F1D  0A27               	incf	??___fladd+7,w
  5220     0F1E  07A3               	addwf	??___fladd+3,f
  5221     0F1F  0823               	movf	??___fladd+3,w
  5222     0F20  00F5               	movwf	___fladd@b+3
  5223     0F21  0822               	movf	??___fladd+2,w
  5224     0F22  00F4               	movwf	___fladd@b+2
  5225     0F23  0821               	movf	??___fladd+1,w
  5226     0F24  00F3               	movwf	___fladd@b+1
  5227     0F25  0820               	movf	??___fladd,w
  5228     0F26  00F2               	movwf	___fladd@b
  5229     0F27                     l2142:
  5230     0F27  3080               	movlw	128
  5231     0F28  00FF               	movwf	btemp+1
  5232     0F29  087F               	movf	btemp+1,w
  5233     0F2A  06A8               	xorwf	___fladd@signs,f
  5234     0F2B                     l2144:
  5235     0F2B  09AB               	comf	___fladd@grs,f
  5236     0F2C  0AAB               	incf	___fladd@grs,f
  5237     0F2D                     l2146:
  5238     0F2D  082B               	movf	___fladd@grs,w
  5239     0F2E  1D03               	btfss	3,2
  5240     0F2F  2F31               	goto	u2251
  5241     0F30  2F32               	goto	u2250
  5242     0F31                     u2251:
  5243     0F31  2F4F               	goto	l716
  5244     0F32                     u2250:
  5245     0F32                     l2148:
  5246     0F32  3001               	movlw	1
  5247     0F33  07F2               	addwf	___fladd@b,f
  5248     0F34  3000               	movlw	0
  5249     0F35  1803               	skipnc
  5250     0F36  3001               	movlw	1
  5251     0F37  07F3               	addwf	___fladd@b+1,f
  5252     0F38  3000               	movlw	0
  5253     0F39  1803               	skipnc
  5254     0F3A  3001               	movlw	1
  5255     0F3B  07F4               	addwf	___fladd@b+2,f
  5256     0F3C  3000               	movlw	0
  5257     0F3D  1803               	skipnc
  5258     0F3E  3001               	movlw	1
  5259     0F3F  07F5               	addwf	___fladd@b+3,f
  5260     0F40  2F4F               	goto	l716
  5261     0F41                     l2150:
  5262     0F41  0876               	movf	___fladd@a,w
  5263     0F42  02F2               	subwf	___fladd@b,f
  5264     0F43  0877               	movf	___fladd@a+1,w
  5265     0F44  1C03               	skipc
  5266     0F45  0F77               	incfsz	___fladd@a+1,w
  5267     0F46  02F3               	subwf	___fladd@b+1,f
  5268     0F47  0878               	movf	___fladd@a+2,w
  5269     0F48  1C03               	skipc
  5270     0F49  0F78               	incfsz	___fladd@a+2,w
  5271     0F4A  02F4               	subwf	___fladd@b+2,f
  5272     0F4B  0879               	movf	___fladd@a+3,w
  5273     0F4C  1C03               	skipc
  5274     0F4D  0F79               	incfsz	___fladd@a+3,w
  5275     0F4E  02F5               	subwf	___fladd@b+3,f
  5276     0F4F                     l716:
  5277     0F4F  0875               	movf	___fladd@b+3,w
  5278     0F50  0474               	iorwf	___fladd@b+2,w
  5279     0F51  0473               	iorwf	___fladd@b+1,w
  5280     0F52  0472               	iorwf	___fladd@b,w
  5281     0F53  1D03               	skipz
  5282     0F54  2F56               	goto	u2261
  5283     0F55  2F57               	goto	u2260
  5284     0F56                     u2261:
  5285     0F56  2F83               	goto	l2172
  5286     0F57                     u2260:
  5287     0F57                     l2152:
  5288     0F57  082B               	movf	___fladd@grs,w
  5289     0F58  1D03               	btfss	3,2
  5290     0F59  2F5B               	goto	u2271
  5291     0F5A  2F5C               	goto	u2270
  5292     0F5B                     u2271:
  5293     0F5B  2F83               	goto	l2172
  5294     0F5C                     u2270:
  5295     0F5C                     l2154:
  5296     0F5C  3000               	movlw	0
  5297     0F5D  00F5               	movwf	?___fladd+3
  5298     0F5E  3000               	movlw	0
  5299     0F5F  00F4               	movwf	?___fladd+2
  5300     0F60  3000               	movlw	0
  5301     0F61  00F3               	movwf	?___fladd+1
  5302     0F62  3000               	movlw	0
  5303     0F63  00F2               	movwf	?___fladd
  5304     0F64  2FFF               	goto	l708
  5305     0F65                     l2158:
  5306     0F65  3001               	movlw	1
  5307     0F66  00A0               	movwf	??___fladd
  5308     0F67                     u2285:
  5309     0F67  1003               	clrc
  5310     0F68  0DF2               	rlf	___fladd@b,f
  5311     0F69  0DF3               	rlf	___fladd@b+1,f
  5312     0F6A  0DF4               	rlf	___fladd@b+2,f
  5313     0F6B  0DF5               	rlf	___fladd@b+3,f
  5314     0F6C  0BA0               	decfsz	??___fladd,f
  5315     0F6D  2F67               	goto	u2285
  5316     0F6E                     l2160:
  5317     0F6E  1FAB               	btfss	___fladd@grs,7
  5318     0F6F  2F71               	goto	u2291
  5319     0F70  2F72               	goto	u2290
  5320     0F71                     u2291:
  5321     0F71  2F73               	goto	l720
  5322     0F72                     u2290:
  5323     0F72                     l2162:
  5324     0F72  1472               	bsf	___fladd@b,0
  5325     0F73                     l720:
  5326     0F73  1C2B               	btfss	___fladd@grs,0
  5327     0F74  2F76               	goto	u2301
  5328     0F75  2F77               	goto	u2300
  5329     0F76                     u2301:
  5330     0F76  2F7A               	goto	l2166
  5331     0F77                     u2300:
  5332     0F77                     l2164:
  5333     0F77  1403               	setc
  5334     0F78  0DAB               	rlf	___fladd@grs,f
  5335     0F79  2F7C               	goto	l2168
  5336     0F7A                     l2166:
  5337     0F7A  1003               	clrc
  5338     0F7B  0DAB               	rlf	___fladd@grs,f
  5339     0F7C                     l2168:
  5340     0F7C  082A               	movf	___fladd@bexp,w
  5341     0F7D  1903               	btfsc	3,2
  5342     0F7E  2F80               	goto	u2311
  5343     0F7F  2F81               	goto	u2310
  5344     0F80                     u2311:
  5345     0F80  2F83               	goto	l2172
  5346     0F81                     u2310:
  5347     0F81                     l2170:
  5348     0F81  3001               	movlw	1
  5349     0F82  02AA               	subwf	___fladd@bexp,f
  5350     0F83                     l2172:
  5351     0F83  1FF4               	btfss	___fladd@b+2,7
  5352     0F84  2F86               	goto	u2321
  5353     0F85  2F87               	goto	u2320
  5354     0F86                     u2321:
  5355     0F86  2F65               	goto	l2158
  5356     0F87                     u2320:
  5357     0F87                     l2174:
  5358     0F87  01A9               	clrf	___fladd@aexp
  5359     0F88                     l2176:
  5360     0F88  1FAB               	btfss	___fladd@grs,7
  5361     0F89  2F8B               	goto	u2331
  5362     0F8A  2F8C               	goto	u2330
  5363     0F8B                     u2331:
  5364     0F8B  2F9A               	goto	l2184
  5365     0F8C                     u2330:
  5366     0F8C                     l2178:
  5367     0F8C  082B               	movf	___fladd@grs,w
  5368     0F8D  397F               	andlw	127
  5369     0F8E  1903               	btfsc	3,2
  5370     0F8F  2F91               	goto	u2341
  5371     0F90  2F92               	goto	u2340
  5372     0F91                     u2341:
  5373     0F91  2F95               	goto	l726
  5374     0F92                     u2340:
  5375     0F92                     l2180:
  5376     0F92  01A9               	clrf	___fladd@aexp
  5377     0F93  0AA9               	incf	___fladd@aexp,f
  5378     0F94  2F9A               	goto	l2184
  5379     0F95                     l726:
  5380     0F95  1C72               	btfss	___fladd@b,0
  5381     0F96  2F98               	goto	u2351
  5382     0F97  2F99               	goto	u2350
  5383     0F98                     u2351:
  5384     0F98  2F9A               	goto	l2184
  5385     0F99                     u2350:
  5386     0F99  2F92               	goto	l2180
  5387     0F9A                     l2184:
  5388     0F9A  0829               	movf	___fladd@aexp,w
  5389     0F9B  1903               	btfsc	3,2
  5390     0F9C  2F9E               	goto	u2361
  5391     0F9D  2F9F               	goto	u2360
  5392     0F9E                     u2361:
  5393     0F9E  2FD3               	goto	l2194
  5394     0F9F                     u2360:
  5395     0F9F                     l2186:
  5396     0F9F  3001               	movlw	1
  5397     0FA0  07F2               	addwf	___fladd@b,f
  5398     0FA1  3000               	movlw	0
  5399     0FA2  1803               	skipnc
  5400     0FA3  3001               	movlw	1
  5401     0FA4  07F3               	addwf	___fladd@b+1,f
  5402     0FA5  3000               	movlw	0
  5403     0FA6  1803               	skipnc
  5404     0FA7  3001               	movlw	1
  5405     0FA8  07F4               	addwf	___fladd@b+2,f
  5406     0FA9  3000               	movlw	0
  5407     0FAA  1803               	skipnc
  5408     0FAB  3001               	movlw	1
  5409     0FAC  07F5               	addwf	___fladd@b+3,f
  5410     0FAD                     l2188:
  5411     0FAD  1C75               	btfss	___fladd@b+3,0
  5412     0FAE  2FB0               	goto	u2371
  5413     0FAF  2FB1               	goto	u2370
  5414     0FB0                     u2371:
  5415     0FB0  2FD3               	goto	l2194
  5416     0FB1                     u2370:
  5417     0FB1                     l2190:
  5418     0FB1  0872               	movf	___fladd@b,w
  5419     0FB2  00A0               	movwf	??___fladd
  5420     0FB3  0873               	movf	___fladd@b+1,w
  5421     0FB4  00A1               	movwf	??___fladd+1
  5422     0FB5  0874               	movf	___fladd@b+2,w
  5423     0FB6  00A2               	movwf	??___fladd+2
  5424     0FB7  0875               	movf	___fladd@b+3,w
  5425     0FB8  00A3               	movwf	??___fladd+3
  5426     0FB9  3001               	movlw	1
  5427     0FBA  00A4               	movwf	??___fladd+4
  5428     0FBB                     u2385:
  5429     0FBB  0D23               	rlf	??___fladd+3,w
  5430     0FBC  0CA3               	rrf	??___fladd+3,f
  5431     0FBD  0CA2               	rrf	??___fladd+2,f
  5432     0FBE  0CA1               	rrf	??___fladd+1,f
  5433     0FBF  0CA0               	rrf	??___fladd,f
  5434     0FC0                     u2380:
  5435     0FC0  0BA4               	decfsz	??___fladd+4,f
  5436     0FC1  2FBB               	goto	u2385
  5437     0FC2  0823               	movf	??___fladd+3,w
  5438     0FC3  00F5               	movwf	___fladd@b+3
  5439     0FC4  0822               	movf	??___fladd+2,w
  5440     0FC5  00F4               	movwf	___fladd@b+2
  5441     0FC6  0821               	movf	??___fladd+1,w
  5442     0FC7  00F3               	movwf	___fladd@b+1
  5443     0FC8  0820               	movf	??___fladd,w
  5444     0FC9  00F2               	movwf	___fladd@b
  5445     0FCA  0A2A               	incf	___fladd@bexp,w
  5446     0FCB  1903               	btfsc	3,2
  5447     0FCC  2FCE               	goto	u2391
  5448     0FCD  2FCF               	goto	u2390
  5449     0FCE                     u2391:
  5450     0FCE  2FD3               	goto	l2194
  5451     0FCF                     u2390:
  5452     0FCF                     l2192:
  5453     0FCF  3001               	movlw	1
  5454     0FD0  00FF               	movwf	btemp+1
  5455     0FD1  087F               	movf	btemp+1,w
  5456     0FD2  07AA               	addwf	___fladd@bexp,f
  5457     0FD3                     l2194:
  5458     0FD3  0A2A               	incf	___fladd@bexp,w
  5459     0FD4  1903               	btfsc	3,2
  5460     0FD5  2FD7               	goto	u2401
  5461     0FD6  2FD8               	goto	u2400
  5462     0FD7                     u2401:
  5463     0FD7  2FDD               	goto	l2198
  5464     0FD8                     u2400:
  5465     0FD8                     l2196:
  5466     0FD8  082A               	movf	___fladd@bexp,w
  5467     0FD9  1D03               	btfss	3,2
  5468     0FDA  2FDC               	goto	u2411
  5469     0FDB  2FDD               	goto	u2410
  5470     0FDC                     u2411:
  5471     0FDC  2FEB               	goto	l2204
  5472     0FDD                     u2410:
  5473     0FDD                     l2198:
  5474     0FDD  3000               	movlw	0
  5475     0FDE  00F5               	movwf	___fladd@b+3
  5476     0FDF  3000               	movlw	0
  5477     0FE0  00F4               	movwf	___fladd@b+2
  5478     0FE1  3000               	movlw	0
  5479     0FE2  00F3               	movwf	___fladd@b+1
  5480     0FE3  3000               	movlw	0
  5481     0FE4  00F2               	movwf	___fladd@b
  5482     0FE5                     l2200:
  5483     0FE5  082A               	movf	___fladd@bexp,w
  5484     0FE6  1D03               	btfss	3,2
  5485     0FE7  2FE9               	goto	u2421
  5486     0FE8  2FEA               	goto	u2420
  5487     0FE9                     u2421:
  5488     0FE9  2FEB               	goto	l2204
  5489     0FEA                     u2420:
  5490     0FEA                     l2202:
  5491     0FEA  01A8               	clrf	___fladd@signs
  5492     0FEB                     l2204:
  5493     0FEB  1C2A               	btfss	___fladd@bexp,0
  5494     0FEC  2FEE               	goto	u2431
  5495     0FED  2FEF               	goto	u2430
  5496     0FEE                     u2431:
  5497     0FEE  2FF1               	goto	l2208
  5498     0FEF                     u2430:
  5499     0FEF                     l2206:
  5500     0FEF  17F4               	bsf	___fladd@b+2,7
  5501     0FF0  2FF5               	goto	l2210
  5502     0FF1                     l2208:
  5503     0FF1  307F               	movlw	127
  5504     0FF2  00FF               	movwf	btemp+1
  5505     0FF3  087F               	movf	btemp+1,w
  5506     0FF4  05F4               	andwf	___fladd@b+2,f
  5507     0FF5                     l2210:
  5508     0FF5  082A               	movf	___fladd@bexp,w
  5509     0FF6  00A0               	movwf	??___fladd
  5510     0FF7  1003               	clrc
  5511     0FF8  0C20               	rrf	??___fladd,w
  5512     0FF9  00F5               	movwf	___fladd@b+3
  5513     0FFA                     l2212:
  5514     0FFA  1FA8               	btfss	___fladd@signs,7
  5515     0FFB  2FFD               	goto	u2441
  5516     0FFC  2FFE               	goto	u2440
  5517     0FFD                     u2441:
  5518     0FFD  2FFF               	goto	l738
  5519     0FFE                     u2440:
  5520     0FFE                     l2214:
  5521     0FFE  17F5               	bsf	___fladd@b+3,7
  5522     0FFF                     l738:
  5523     0FFF                     l708:
  5524     0FFF  0008               	return
  5525     1000                     __end_of___fladd:
  5526                           
  5527                           	psect	text11
  5528     03E9                     __ptext11:	
  5529 ;; *************** function ___flmul *****************
  5530 ;; Defined at:
  5531 ;;		line 8 in file "C:\Program Files\Microchip\xc8\v2.46\pic\sources\c99\common\sprcmul.c"
  5532 ;; Parameters:    Size  Location     Type
  5533 ;;  b               4    6[BANK0 ] unsigned char 
  5534 ;;  a               4   10[BANK0 ] unsigned char 
  5535 ;; Auto vars:     Size  Location     Type
  5536 ;;  prod            4   26[BANK0 ] struct .
  5537 ;;  grs             4   21[BANK0 ] unsigned long 
  5538 ;;  temp            2   30[BANK0 ] struct .
  5539 ;;  bexp            1   25[BANK0 ] unsigned char 
  5540 ;;  aexp            1   20[BANK0 ] unsigned char 
  5541 ;;  sign            1   19[BANK0 ] unsigned char 
  5542 ;; Return value:  Size  Location     Type
  5543 ;;                  4    6[BANK0 ] unsigned char 
  5544 ;; Registers used:
  5545 ;;		wreg, status,2, status,0, btemp+1, pclath, cstack
  5546 ;; Tracked objects:
  5547 ;;		On entry : 0/0
  5548 ;;		On exit  : 0/0
  5549 ;;		Unchanged: 0/0
  5550 ;; Data sizes:     COMMON   BANK0   BANK1   BANK3   BANK2
  5551 ;;      Params:         0       8       0       0       0
  5552 ;;      Locals:         0      13       0       0       0
  5553 ;;      Temps:          0       5       0       0       0
  5554 ;;      Totals:         0      26       0       0       0
  5555 ;;Total ram usage:       26 bytes
  5556 ;; Hardware stack levels used: 1
  5557 ;; Hardware stack levels required when called: 2
  5558 ;; This function calls:
  5559 ;;		__Umul8_16
  5560 ;; This function is called by:
  5561 ;;		_run_program
  5562 ;; This function uses a non-reentrant model
  5563 ;;
  5564                           
  5565     03E9                     ___flmul:	
  5566                           ;psect for function ___flmul
  5567                           
  5568     03E9                     l3188:	
  5569                           ;incstack = 0
  5570                           ; Regs used in ___flmul: [wreg+status,2+status,0+btemp+1+pclath+cstack]
  5571                           
  5572     03E9  1283               	bcf	3,5	;RP0=0, select bank0
  5573     03EA  1303               	bcf	3,6	;RP1=0, select bank0
  5574     03EB  0829               	movf	___flmul@b+3,w
  5575     03EC  3980               	andlw	128
  5576     03ED  00B3               	movwf	___flmul@sign
  5577     03EE                     l3190:
  5578     03EE  0829               	movf	___flmul@b+3,w
  5579     03EF  00AE               	movwf	??___flmul
  5580     03F0  072E               	addwf	??___flmul,w
  5581     03F1  00B9               	movwf	___flmul@bexp
  5582     03F2                     l3192:
  5583     03F2  1FA8               	btfss	___flmul@b+2,7
  5584     03F3  2BF5               	goto	u3991
  5585     03F4  2BF6               	goto	u3990
  5586     03F5                     u3991:
  5587     03F5  2BF7               	goto	l3196
  5588     03F6                     u3990:
  5589     03F6                     l3194:
  5590     03F6  1439               	bsf	___flmul@bexp,0
  5591     03F7                     l3196:
  5592     03F7  0839               	movf	___flmul@bexp,w
  5593     03F8  1903               	btfsc	3,2
  5594     03F9  2BFB               	goto	u4001
  5595     03FA  2BFC               	goto	u4000
  5596     03FB                     u4001:
  5597     03FB  2C0B               	goto	l3204
  5598     03FC                     u4000:
  5599     03FC                     l3198:
  5600     03FC  0A39               	incf	___flmul@bexp,w
  5601     03FD  1D03               	btfss	3,2
  5602     03FE  2C00               	goto	u4011
  5603     03FF  2C01               	goto	u4010
  5604     0400                     u4011:
  5605     0400  2C09               	goto	l3202
  5606     0401                     u4010:
  5607     0401                     l3200:
  5608     0401  3000               	movlw	0
  5609     0402  00A9               	movwf	___flmul@b+3
  5610     0403  3000               	movlw	0
  5611     0404  00A8               	movwf	___flmul@b+2
  5612     0405  3000               	movlw	0
  5613     0406  00A7               	movwf	___flmul@b+1
  5614     0407  3000               	movlw	0
  5615     0408  00A6               	movwf	___flmul@b
  5616     0409                     l3202:
  5617     0409  17A8               	bsf	___flmul@b+2,7
  5618     040A  2C13               	goto	l3206
  5619     040B                     l3204:
  5620     040B  3000               	movlw	0
  5621     040C  00A9               	movwf	___flmul@b+3
  5622     040D  3000               	movlw	0
  5623     040E  00A8               	movwf	___flmul@b+2
  5624     040F  3000               	movlw	0
  5625     0410  00A7               	movwf	___flmul@b+1
  5626     0411  3000               	movlw	0
  5627     0412  00A6               	movwf	___flmul@b
  5628     0413                     l3206:
  5629     0413  082D               	movf	___flmul@a+3,w
  5630     0414  3980               	andlw	128
  5631     0415  00FF               	movwf	btemp+1
  5632     0416  087F               	movf	btemp+1,w
  5633     0417  06B3               	xorwf	___flmul@sign,f
  5634     0418                     l3208:
  5635     0418  082D               	movf	___flmul@a+3,w
  5636     0419  00AE               	movwf	??___flmul
  5637     041A  072E               	addwf	??___flmul,w
  5638     041B  00B4               	movwf	___flmul@aexp
  5639     041C                     l3210:
  5640     041C  1FAC               	btfss	___flmul@a+2,7
  5641     041D  2C1F               	goto	u4021
  5642     041E  2C20               	goto	u4020
  5643     041F                     u4021:
  5644     041F  2C21               	goto	l3214
  5645     0420                     u4020:
  5646     0420                     l3212:
  5647     0420  1434               	bsf	___flmul@aexp,0
  5648     0421                     l3214:
  5649     0421  0834               	movf	___flmul@aexp,w
  5650     0422  1903               	btfsc	3,2
  5651     0423  2C25               	goto	u4031
  5652     0424  2C26               	goto	u4030
  5653     0425                     u4031:
  5654     0425  2C35               	goto	l3222
  5655     0426                     u4030:
  5656     0426                     l3216:
  5657     0426  0A34               	incf	___flmul@aexp,w
  5658     0427  1D03               	btfss	3,2
  5659     0428  2C2A               	goto	u4041
  5660     0429  2C2B               	goto	u4040
  5661     042A                     u4041:
  5662     042A  2C33               	goto	l3220
  5663     042B                     u4040:
  5664     042B                     l3218:
  5665     042B  3000               	movlw	0
  5666     042C  00AD               	movwf	___flmul@a+3
  5667     042D  3000               	movlw	0
  5668     042E  00AC               	movwf	___flmul@a+2
  5669     042F  3000               	movlw	0
  5670     0430  00AB               	movwf	___flmul@a+1
  5671     0431  3000               	movlw	0
  5672     0432  00AA               	movwf	___flmul@a
  5673     0433                     l3220:
  5674     0433  17AC               	bsf	___flmul@a+2,7
  5675     0434  2C3D               	goto	l3224
  5676     0435                     l3222:
  5677     0435  3000               	movlw	0
  5678     0436  00AD               	movwf	___flmul@a+3
  5679     0437  3000               	movlw	0
  5680     0438  00AC               	movwf	___flmul@a+2
  5681     0439  3000               	movlw	0
  5682     043A  00AB               	movwf	___flmul@a+1
  5683     043B  3000               	movlw	0
  5684     043C  00AA               	movwf	___flmul@a
  5685     043D                     l3224:
  5686     043D  0834               	movf	___flmul@aexp,w
  5687     043E  1903               	btfsc	3,2
  5688     043F  2C41               	goto	u4051
  5689     0440  2C42               	goto	u4050
  5690     0441                     u4051:
  5691     0441  2C47               	goto	l3228
  5692     0442                     u4050:
  5693     0442                     l3226:
  5694     0442  0839               	movf	___flmul@bexp,w
  5695     0443  1D03               	btfss	3,2
  5696     0444  2C46               	goto	u4061
  5697     0445  2C47               	goto	u4060
  5698     0446                     u4061:
  5699     0446  2C50               	goto	l3232
  5700     0447                     u4060:
  5701     0447                     l3228:
  5702     0447  3000               	movlw	0
  5703     0448  00A9               	movwf	?___flmul+3
  5704     0449  3000               	movlw	0
  5705     044A  00A8               	movwf	?___flmul+2
  5706     044B  3000               	movlw	0
  5707     044C  00A7               	movwf	?___flmul+1
  5708     044D  3000               	movlw	0
  5709     044E  00A6               	movwf	?___flmul
  5710     044F  2F2D               	goto	l791
  5711     0450                     l3232:
  5712     0450  0826               	movf	___flmul@b,w
  5713     0451  00F2               	movwf	__Umul8_16@multiplicand
  5714     0452  082C               	movf	___flmul@a+2,w
  5715     0453  160A  118A  25EC  120A  118A  	fcall	__Umul8_16
  5716     0458  0873               	movf	?__Umul8_16+1,w
  5717     0459  1283               	bcf	3,5	;RP0=0, select bank0
  5718     045A  1303               	bcf	3,6	;RP1=0, select bank0
  5719     045B  00BF               	movwf	___flmul@temp+1
  5720     045C  0872               	movf	?__Umul8_16,w
  5721     045D  00BE               	movwf	___flmul@temp
  5722     045E                     l3234:
  5723     045E  083E               	movf	___flmul@temp,w
  5724     045F  00AE               	movwf	??___flmul
  5725     0460  01AF               	clrf	??___flmul+1
  5726     0461  01B0               	clrf	??___flmul+2
  5727     0462  01B1               	clrf	??___flmul+3
  5728     0463  0831               	movf	??___flmul+3,w
  5729     0464  00B8               	movwf	___flmul@grs+3
  5730     0465  0830               	movf	??___flmul+2,w
  5731     0466  00B7               	movwf	___flmul@grs+2
  5732     0467  082F               	movf	??___flmul+1,w
  5733     0468  00B6               	movwf	___flmul@grs+1
  5734     0469  082E               	movf	??___flmul,w
  5735     046A  00B5               	movwf	___flmul@grs
  5736     046B                     l3236:
  5737     046B  083F               	movf	___flmul@temp+1,w
  5738     046C  00AE               	movwf	??___flmul
  5739     046D  01AF               	clrf	??___flmul+1
  5740     046E  01B0               	clrf	??___flmul+2
  5741     046F  01B1               	clrf	??___flmul+3
  5742     0470  0831               	movf	??___flmul+3,w
  5743     0471  00BD               	movwf	___flmul@prod+3
  5744     0472  0830               	movf	??___flmul+2,w
  5745     0473  00BC               	movwf	___flmul@prod+2
  5746     0474  082F               	movf	??___flmul+1,w
  5747     0475  00BB               	movwf	___flmul@prod+1
  5748     0476  082E               	movf	??___flmul,w
  5749     0477  00BA               	movwf	___flmul@prod
  5750     0478  0827               	movf	___flmul@b+1,w
  5751     0479  00F2               	movwf	__Umul8_16@multiplicand
  5752     047A  082B               	movf	___flmul@a+1,w
  5753     047B  160A  118A  25EC  120A  118A  	fcall	__Umul8_16
  5754     0480  0873               	movf	?__Umul8_16+1,w
  5755     0481  1283               	bcf	3,5	;RP0=0, select bank0
  5756     0482  1303               	bcf	3,6	;RP1=0, select bank0
  5757     0483  00BF               	movwf	___flmul@temp+1
  5758     0484  0872               	movf	?__Umul8_16,w
  5759     0485  00BE               	movwf	___flmul@temp
  5760     0486                     l3238:
  5761     0486  083E               	movf	___flmul@temp,w
  5762     0487  00AE               	movwf	??___flmul
  5763     0488  01AF               	clrf	??___flmul+1
  5764     0489  01B0               	clrf	??___flmul+2
  5765     048A  01B1               	clrf	??___flmul+3
  5766     048B  082E               	movf	??___flmul,w
  5767     048C  07B5               	addwf	___flmul@grs,f
  5768     048D  082F               	movf	??___flmul+1,w
  5769     048E  1103               	clrz
  5770     048F  1803               	skipnc
  5771     0490  3E01               	addlw	1
  5772     0491  1903               	skipnz
  5773     0492  2C94               	goto	u4071
  5774     0493  07B6               	addwf	___flmul@grs+1,f
  5775     0494                     u4071:
  5776     0494  0830               	movf	??___flmul+2,w
  5777     0495  1103               	clrz
  5778     0496  1803               	skipnc
  5779     0497  3E01               	addlw	1
  5780     0498  1903               	skipnz
  5781     0499  2C9B               	goto	u4072
  5782     049A  07B7               	addwf	___flmul@grs+2,f
  5783     049B                     u4072:
  5784     049B  0831               	movf	??___flmul+3,w
  5785     049C  1103               	clrz
  5786     049D  1803               	skipnc
  5787     049E  3E01               	addlw	1
  5788     049F  1903               	skipnz
  5789     04A0  2CA2               	goto	u4073
  5790     04A1  07B8               	addwf	___flmul@grs+3,f
  5791     04A2                     u4073:
  5792     04A2                     l3240:
  5793     04A2  083F               	movf	___flmul@temp+1,w
  5794     04A3  00AE               	movwf	??___flmul
  5795     04A4  01AF               	clrf	??___flmul+1
  5796     04A5  01B0               	clrf	??___flmul+2
  5797     04A6  01B1               	clrf	??___flmul+3
  5798     04A7  082E               	movf	??___flmul,w
  5799     04A8  07BA               	addwf	___flmul@prod,f
  5800     04A9  082F               	movf	??___flmul+1,w
  5801     04AA  1103               	clrz
  5802     04AB  1803               	skipnc
  5803     04AC  3E01               	addlw	1
  5804     04AD  1903               	skipnz
  5805     04AE  2CB0               	goto	u4081
  5806     04AF  07BB               	addwf	___flmul@prod+1,f
  5807     04B0                     u4081:
  5808     04B0  0830               	movf	??___flmul+2,w
  5809     04B1  1103               	clrz
  5810     04B2  1803               	skipnc
  5811     04B3  3E01               	addlw	1
  5812     04B4  1903               	skipnz
  5813     04B5  2CB7               	goto	u4082
  5814     04B6  07BC               	addwf	___flmul@prod+2,f
  5815     04B7                     u4082:
  5816     04B7  0831               	movf	??___flmul+3,w
  5817     04B8  1103               	clrz
  5818     04B9  1803               	skipnc
  5819     04BA  3E01               	addlw	1
  5820     04BB  1903               	skipnz
  5821     04BC  2CBE               	goto	u4083
  5822     04BD  07BD               	addwf	___flmul@prod+3,f
  5823     04BE                     u4083:
  5824     04BE  0828               	movf	___flmul@b+2,w
  5825     04BF  00F2               	movwf	__Umul8_16@multiplicand
  5826     04C0  082A               	movf	___flmul@a,w
  5827     04C1  160A  118A  25EC  120A  118A  	fcall	__Umul8_16
  5828     04C6  0873               	movf	?__Umul8_16+1,w
  5829     04C7  1283               	bcf	3,5	;RP0=0, select bank0
  5830     04C8  1303               	bcf	3,6	;RP1=0, select bank0
  5831     04C9  00BF               	movwf	___flmul@temp+1
  5832     04CA  0872               	movf	?__Umul8_16,w
  5833     04CB  00BE               	movwf	___flmul@temp
  5834     04CC                     l3242:
  5835     04CC  083E               	movf	___flmul@temp,w
  5836     04CD  00AE               	movwf	??___flmul
  5837     04CE  01AF               	clrf	??___flmul+1
  5838     04CF  01B0               	clrf	??___flmul+2
  5839     04D0  01B1               	clrf	??___flmul+3
  5840     04D1  082E               	movf	??___flmul,w
  5841     04D2  07B5               	addwf	___flmul@grs,f
  5842     04D3  082F               	movf	??___flmul+1,w
  5843     04D4  1103               	clrz
  5844     04D5  1803               	skipnc
  5845     04D6  3E01               	addlw	1
  5846     04D7  1903               	skipnz
  5847     04D8  2CDA               	goto	u4091
  5848     04D9  07B6               	addwf	___flmul@grs+1,f
  5849     04DA                     u4091:
  5850     04DA  0830               	movf	??___flmul+2,w
  5851     04DB  1103               	clrz
  5852     04DC  1803               	skipnc
  5853     04DD  3E01               	addlw	1
  5854     04DE  1903               	skipnz
  5855     04DF  2CE1               	goto	u4092
  5856     04E0  07B7               	addwf	___flmul@grs+2,f
  5857     04E1                     u4092:
  5858     04E1  0831               	movf	??___flmul+3,w
  5859     04E2  1103               	clrz
  5860     04E3  1803               	skipnc
  5861     04E4  3E01               	addlw	1
  5862     04E5  1903               	skipnz
  5863     04E6  2CE8               	goto	u4093
  5864     04E7  07B8               	addwf	___flmul@grs+3,f
  5865     04E8                     u4093:
  5866     04E8                     l3244:
  5867     04E8  083F               	movf	___flmul@temp+1,w
  5868     04E9  00AE               	movwf	??___flmul
  5869     04EA  01AF               	clrf	??___flmul+1
  5870     04EB  01B0               	clrf	??___flmul+2
  5871     04EC  01B1               	clrf	??___flmul+3
  5872     04ED  082E               	movf	??___flmul,w
  5873     04EE  07BA               	addwf	___flmul@prod,f
  5874     04EF  082F               	movf	??___flmul+1,w
  5875     04F0  1103               	clrz
  5876     04F1  1803               	skipnc
  5877     04F2  3E01               	addlw	1
  5878     04F3  1903               	skipnz
  5879     04F4  2CF6               	goto	u4101
  5880     04F5  07BB               	addwf	___flmul@prod+1,f
  5881     04F6                     u4101:
  5882     04F6  0830               	movf	??___flmul+2,w
  5883     04F7  1103               	clrz
  5884     04F8  1803               	skipnc
  5885     04F9  3E01               	addlw	1
  5886     04FA  1903               	skipnz
  5887     04FB  2CFD               	goto	u4102
  5888     04FC  07BC               	addwf	___flmul@prod+2,f
  5889     04FD                     u4102:
  5890     04FD  0831               	movf	??___flmul+3,w
  5891     04FE  1103               	clrz
  5892     04FF  1803               	skipnc
  5893     0500  3E01               	addlw	1
  5894     0501  1903               	skipnz
  5895     0502  2D04               	goto	u4103
  5896     0503  07BD               	addwf	___flmul@prod+3,f
  5897     0504                     u4103:
  5898     0504                     l3246:
  5899     0504  3008               	movlw	8
  5900     0505  00AE               	movwf	??___flmul
  5901     0506                     u4115:
  5902     0506  1003               	clrc
  5903     0507  0DB5               	rlf	___flmul@grs,f
  5904     0508  0DB6               	rlf	___flmul@grs+1,f
  5905     0509  0DB7               	rlf	___flmul@grs+2,f
  5906     050A  0DB8               	rlf	___flmul@grs+3,f
  5907     050B  0BAE               	decfsz	??___flmul,f
  5908     050C  2D06               	goto	u4115
  5909     050D                     l3248:
  5910     050D  0827               	movf	___flmul@b+1,w
  5911     050E  00F2               	movwf	__Umul8_16@multiplicand
  5912     050F  082A               	movf	___flmul@a,w
  5913     0510  160A  118A  25EC  120A  118A  	fcall	__Umul8_16
  5914     0515  0873               	movf	?__Umul8_16+1,w
  5915     0516  1283               	bcf	3,5	;RP0=0, select bank0
  5916     0517  1303               	bcf	3,6	;RP1=0, select bank0
  5917     0518  00BF               	movwf	___flmul@temp+1
  5918     0519  0872               	movf	?__Umul8_16,w
  5919     051A  00BE               	movwf	___flmul@temp
  5920     051B                     l3250:
  5921     051B  083E               	movf	___flmul@temp,w
  5922     051C  00AE               	movwf	??___flmul
  5923     051D  083F               	movf	___flmul@temp+1,w
  5924     051E  00AF               	movwf	??___flmul+1
  5925     051F  01B0               	clrf	??___flmul+2
  5926     0520  01B1               	clrf	??___flmul+3
  5927     0521  082E               	movf	??___flmul,w
  5928     0522  07B5               	addwf	___flmul@grs,f
  5929     0523  082F               	movf	??___flmul+1,w
  5930     0524  1103               	clrz
  5931     0525  1803               	skipnc
  5932     0526  3E01               	addlw	1
  5933     0527  1903               	skipnz
  5934     0528  2D2A               	goto	u4121
  5935     0529  07B6               	addwf	___flmul@grs+1,f
  5936     052A                     u4121:
  5937     052A  0830               	movf	??___flmul+2,w
  5938     052B  1103               	clrz
  5939     052C  1803               	skipnc
  5940     052D  3E01               	addlw	1
  5941     052E  1903               	skipnz
  5942     052F  2D31               	goto	u4122
  5943     0530  07B7               	addwf	___flmul@grs+2,f
  5944     0531                     u4122:
  5945     0531  0831               	movf	??___flmul+3,w
  5946     0532  1103               	clrz
  5947     0533  1803               	skipnc
  5948     0534  3E01               	addlw	1
  5949     0535  1903               	skipnz
  5950     0536  2D38               	goto	u4123
  5951     0537  07B8               	addwf	___flmul@grs+3,f
  5952     0538                     u4123:
  5953     0538                     l3252:
  5954     0538  0826               	movf	___flmul@b,w
  5955     0539  00F2               	movwf	__Umul8_16@multiplicand
  5956     053A  082B               	movf	___flmul@a+1,w
  5957     053B  160A  118A  25EC  120A  118A  	fcall	__Umul8_16
  5958     0540  0873               	movf	?__Umul8_16+1,w
  5959     0541  1283               	bcf	3,5	;RP0=0, select bank0
  5960     0542  1303               	bcf	3,6	;RP1=0, select bank0
  5961     0543  00BF               	movwf	___flmul@temp+1
  5962     0544  0872               	movf	?__Umul8_16,w
  5963     0545  00BE               	movwf	___flmul@temp
  5964     0546                     l3254:
  5965     0546  083E               	movf	___flmul@temp,w
  5966     0547  00AE               	movwf	??___flmul
  5967     0548  083F               	movf	___flmul@temp+1,w
  5968     0549  00AF               	movwf	??___flmul+1
  5969     054A  01B0               	clrf	??___flmul+2
  5970     054B  01B1               	clrf	??___flmul+3
  5971     054C  082E               	movf	??___flmul,w
  5972     054D  07B5               	addwf	___flmul@grs,f
  5973     054E  082F               	movf	??___flmul+1,w
  5974     054F  1103               	clrz
  5975     0550  1803               	skipnc
  5976     0551  3E01               	addlw	1
  5977     0552  1903               	skipnz
  5978     0553  2D55               	goto	u4131
  5979     0554  07B6               	addwf	___flmul@grs+1,f
  5980     0555                     u4131:
  5981     0555  0830               	movf	??___flmul+2,w
  5982     0556  1103               	clrz
  5983     0557  1803               	skipnc
  5984     0558  3E01               	addlw	1
  5985     0559  1903               	skipnz
  5986     055A  2D5C               	goto	u4132
  5987     055B  07B7               	addwf	___flmul@grs+2,f
  5988     055C                     u4132:
  5989     055C  0831               	movf	??___flmul+3,w
  5990     055D  1103               	clrz
  5991     055E  1803               	skipnc
  5992     055F  3E01               	addlw	1
  5993     0560  1903               	skipnz
  5994     0561  2D63               	goto	u4133
  5995     0562  07B8               	addwf	___flmul@grs+3,f
  5996     0563                     u4133:
  5997     0563                     l3256:
  5998     0563  3008               	movlw	8
  5999     0564  00AE               	movwf	??___flmul
  6000     0565                     u4145:
  6001     0565  1003               	clrc
  6002     0566  0DB5               	rlf	___flmul@grs,f
  6003     0567  0DB6               	rlf	___flmul@grs+1,f
  6004     0568  0DB7               	rlf	___flmul@grs+2,f
  6005     0569  0DB8               	rlf	___flmul@grs+3,f
  6006     056A  0BAE               	decfsz	??___flmul,f
  6007     056B  2D65               	goto	u4145
  6008     056C  0826               	movf	___flmul@b,w
  6009     056D  00F2               	movwf	__Umul8_16@multiplicand
  6010     056E  082A               	movf	___flmul@a,w
  6011     056F  160A  118A  25EC  120A  118A  	fcall	__Umul8_16
  6012     0574  0873               	movf	?__Umul8_16+1,w
  6013     0575  1283               	bcf	3,5	;RP0=0, select bank0
  6014     0576  1303               	bcf	3,6	;RP1=0, select bank0
  6015     0577  00BF               	movwf	___flmul@temp+1
  6016     0578  0872               	movf	?__Umul8_16,w
  6017     0579  00BE               	movwf	___flmul@temp
  6018     057A                     l3258:
  6019     057A  083E               	movf	___flmul@temp,w
  6020     057B  00AE               	movwf	??___flmul
  6021     057C  083F               	movf	___flmul@temp+1,w
  6022     057D  00AF               	movwf	??___flmul+1
  6023     057E  01B0               	clrf	??___flmul+2
  6024     057F  01B1               	clrf	??___flmul+3
  6025     0580  082E               	movf	??___flmul,w
  6026     0581  07B5               	addwf	___flmul@grs,f
  6027     0582  082F               	movf	??___flmul+1,w
  6028     0583  1103               	clrz
  6029     0584  1803               	skipnc
  6030     0585  3E01               	addlw	1
  6031     0586  1903               	skipnz
  6032     0587  2D89               	goto	u4151
  6033     0588  07B6               	addwf	___flmul@grs+1,f
  6034     0589                     u4151:
  6035     0589  0830               	movf	??___flmul+2,w
  6036     058A  1103               	clrz
  6037     058B  1803               	skipnc
  6038     058C  3E01               	addlw	1
  6039     058D  1903               	skipnz
  6040     058E  2D90               	goto	u4152
  6041     058F  07B7               	addwf	___flmul@grs+2,f
  6042     0590                     u4152:
  6043     0590  0831               	movf	??___flmul+3,w
  6044     0591  1103               	clrz
  6045     0592  1803               	skipnc
  6046     0593  3E01               	addlw	1
  6047     0594  1903               	skipnz
  6048     0595  2D97               	goto	u4153
  6049     0596  07B8               	addwf	___flmul@grs+3,f
  6050     0597                     u4153:
  6051     0597                     l3260:
  6052     0597  0827               	movf	___flmul@b+1,w
  6053     0598  00F2               	movwf	__Umul8_16@multiplicand
  6054     0599  082C               	movf	___flmul@a+2,w
  6055     059A  160A  118A  25EC  120A  118A  	fcall	__Umul8_16
  6056     059F  0873               	movf	?__Umul8_16+1,w
  6057     05A0  1283               	bcf	3,5	;RP0=0, select bank0
  6058     05A1  1303               	bcf	3,6	;RP1=0, select bank0
  6059     05A2  00BF               	movwf	___flmul@temp+1
  6060     05A3  0872               	movf	?__Umul8_16,w
  6061     05A4  00BE               	movwf	___flmul@temp
  6062     05A5  083E               	movf	___flmul@temp,w
  6063     05A6  00AE               	movwf	??___flmul
  6064     05A7  083F               	movf	___flmul@temp+1,w
  6065     05A8  00AF               	movwf	??___flmul+1
  6066     05A9  01B0               	clrf	??___flmul+2
  6067     05AA  01B1               	clrf	??___flmul+3
  6068     05AB  082E               	movf	??___flmul,w
  6069     05AC  07BA               	addwf	___flmul@prod,f
  6070     05AD  082F               	movf	??___flmul+1,w
  6071     05AE  1103               	clrz
  6072     05AF  1803               	skipnc
  6073     05B0  3E01               	addlw	1
  6074     05B1  1903               	skipnz
  6075     05B2  2DB4               	goto	u4161
  6076     05B3  07BB               	addwf	___flmul@prod+1,f
  6077     05B4                     u4161:
  6078     05B4  0830               	movf	??___flmul+2,w
  6079     05B5  1103               	clrz
  6080     05B6  1803               	skipnc
  6081     05B7  3E01               	addlw	1
  6082     05B8  1903               	skipnz
  6083     05B9  2DBB               	goto	u4162
  6084     05BA  07BC               	addwf	___flmul@prod+2,f
  6085     05BB                     u4162:
  6086     05BB  0831               	movf	??___flmul+3,w
  6087     05BC  1103               	clrz
  6088     05BD  1803               	skipnc
  6089     05BE  3E01               	addlw	1
  6090     05BF  1903               	skipnz
  6091     05C0  2DC2               	goto	u4163
  6092     05C1  07BD               	addwf	___flmul@prod+3,f
  6093     05C2                     u4163:
  6094     05C2                     l3262:
  6095     05C2  0828               	movf	___flmul@b+2,w
  6096     05C3  00F2               	movwf	__Umul8_16@multiplicand
  6097     05C4  082B               	movf	___flmul@a+1,w
  6098     05C5  160A  118A  25EC  120A  118A  	fcall	__Umul8_16
  6099     05CA  0873               	movf	?__Umul8_16+1,w
  6100     05CB  1283               	bcf	3,5	;RP0=0, select bank0
  6101     05CC  1303               	bcf	3,6	;RP1=0, select bank0
  6102     05CD  00BF               	movwf	___flmul@temp+1
  6103     05CE  0872               	movf	?__Umul8_16,w
  6104     05CF  00BE               	movwf	___flmul@temp
  6105     05D0                     l3264:
  6106     05D0  083E               	movf	___flmul@temp,w
  6107     05D1  00AE               	movwf	??___flmul
  6108     05D2  083F               	movf	___flmul@temp+1,w
  6109     05D3  00AF               	movwf	??___flmul+1
  6110     05D4  01B0               	clrf	??___flmul+2
  6111     05D5  01B1               	clrf	??___flmul+3
  6112     05D6  082E               	movf	??___flmul,w
  6113     05D7  07BA               	addwf	___flmul@prod,f
  6114     05D8  082F               	movf	??___flmul+1,w
  6115     05D9  1103               	clrz
  6116     05DA  1803               	skipnc
  6117     05DB  3E01               	addlw	1
  6118     05DC  1903               	skipnz
  6119     05DD  2DDF               	goto	u4171
  6120     05DE  07BB               	addwf	___flmul@prod+1,f
  6121     05DF                     u4171:
  6122     05DF  0830               	movf	??___flmul+2,w
  6123     05E0  1103               	clrz
  6124     05E1  1803               	skipnc
  6125     05E2  3E01               	addlw	1
  6126     05E3  1903               	skipnz
  6127     05E4  2DE6               	goto	u4172
  6128     05E5  07BC               	addwf	___flmul@prod+2,f
  6129     05E6                     u4172:
  6130     05E6  0831               	movf	??___flmul+3,w
  6131     05E7  1103               	clrz
  6132     05E8  1803               	skipnc
  6133     05E9  3E01               	addlw	1
  6134     05EA  1903               	skipnz
  6135     05EB  2DED               	goto	u4173
  6136     05EC  07BD               	addwf	___flmul@prod+3,f
  6137     05ED                     u4173:
  6138     05ED  0828               	movf	___flmul@b+2,w
  6139     05EE  00F2               	movwf	__Umul8_16@multiplicand
  6140     05EF  082C               	movf	___flmul@a+2,w
  6141     05F0  160A  118A  25EC  120A  118A  	fcall	__Umul8_16
  6142     05F5  0873               	movf	?__Umul8_16+1,w
  6143     05F6  1283               	bcf	3,5	;RP0=0, select bank0
  6144     05F7  1303               	bcf	3,6	;RP1=0, select bank0
  6145     05F8  00BF               	movwf	___flmul@temp+1
  6146     05F9  0872               	movf	?__Umul8_16,w
  6147     05FA  00BE               	movwf	___flmul@temp
  6148     05FB                     l3266:
  6149     05FB  083E               	movf	___flmul@temp,w
  6150     05FC  00AE               	movwf	??___flmul
  6151     05FD  083F               	movf	___flmul@temp+1,w
  6152     05FE  00AF               	movwf	??___flmul+1
  6153     05FF  01B0               	clrf	??___flmul+2
  6154     0600  01B1               	clrf	??___flmul+3
  6155     0601  3008               	movlw	8
  6156     0602                     u4185:
  6157     0602  1003               	clrc
  6158     0603  0DAE               	rlf	??___flmul,f
  6159     0604  0DAF               	rlf	??___flmul+1,f
  6160     0605  0DB0               	rlf	??___flmul+2,f
  6161     0606  0DB1               	rlf	??___flmul+3,f
  6162     0607                     u4180:
  6163     0607  3EFF               	addlw	-1
  6164     0608  1D03               	skipz
  6165     0609  2E02               	goto	u4185
  6166     060A  082E               	movf	??___flmul,w
  6167     060B  07BA               	addwf	___flmul@prod,f
  6168     060C  082F               	movf	??___flmul+1,w
  6169     060D  1103               	clrz
  6170     060E  1803               	skipnc
  6171     060F  3E01               	addlw	1
  6172     0610  1903               	skipnz
  6173     0611  2E13               	goto	u4191
  6174     0612  07BB               	addwf	___flmul@prod+1,f
  6175     0613                     u4191:
  6176     0613  0830               	movf	??___flmul+2,w
  6177     0614  1103               	clrz
  6178     0615  1803               	skipnc
  6179     0616  3E01               	addlw	1
  6180     0617  1903               	skipnz
  6181     0618  2E1A               	goto	u4192
  6182     0619  07BC               	addwf	___flmul@prod+2,f
  6183     061A                     u4192:
  6184     061A  0831               	movf	??___flmul+3,w
  6185     061B  1103               	clrz
  6186     061C  1803               	skipnc
  6187     061D  3E01               	addlw	1
  6188     061E  1903               	skipnz
  6189     061F  2E21               	goto	u4193
  6190     0620  07BD               	addwf	___flmul@prod+3,f
  6191     0621                     u4193:
  6192     0621                     l3268:
  6193     0621  0835               	movf	___flmul@grs,w
  6194     0622  00AE               	movwf	??___flmul
  6195     0623  0836               	movf	___flmul@grs+1,w
  6196     0624  00AF               	movwf	??___flmul+1
  6197     0625  0837               	movf	___flmul@grs+2,w
  6198     0626  00B0               	movwf	??___flmul+2
  6199     0627  0838               	movf	___flmul@grs+3,w
  6200     0628  00B1               	movwf	??___flmul+3
  6201     0629  3018               	movlw	24
  6202     062A                     u4205:
  6203     062A  1003               	clrc
  6204     062B  0CB1               	rrf	??___flmul+3,f
  6205     062C  0CB0               	rrf	??___flmul+2,f
  6206     062D  0CAF               	rrf	??___flmul+1,f
  6207     062E  0CAE               	rrf	??___flmul,f
  6208     062F                     u4200:
  6209     062F  3EFF               	addlw	-1
  6210     0630  1D03               	skipz
  6211     0631  2E2A               	goto	u4205
  6212     0632  082E               	movf	??___flmul,w
  6213     0633  07BA               	addwf	___flmul@prod,f
  6214     0634  082F               	movf	??___flmul+1,w
  6215     0635  1103               	clrz
  6216     0636  1803               	skipnc
  6217     0637  3E01               	addlw	1
  6218     0638  1903               	skipnz
  6219     0639  2E3B               	goto	u4211
  6220     063A  07BB               	addwf	___flmul@prod+1,f
  6221     063B                     u4211:
  6222     063B  0830               	movf	??___flmul+2,w
  6223     063C  1103               	clrz
  6224     063D  1803               	skipnc
  6225     063E  3E01               	addlw	1
  6226     063F  1903               	skipnz
  6227     0640  2E42               	goto	u4212
  6228     0641  07BC               	addwf	___flmul@prod+2,f
  6229     0642                     u4212:
  6230     0642  0831               	movf	??___flmul+3,w
  6231     0643  1103               	clrz
  6232     0644  1803               	skipnc
  6233     0645  3E01               	addlw	1
  6234     0646  1903               	skipnz
  6235     0647  2E49               	goto	u4213
  6236     0648  07BD               	addwf	___flmul@prod+3,f
  6237     0649                     u4213:
  6238     0649                     l3270:
  6239     0649  3008               	movlw	8
  6240     064A  00AE               	movwf	??___flmul
  6241     064B                     u4225:
  6242     064B  1003               	clrc
  6243     064C  0DB5               	rlf	___flmul@grs,f
  6244     064D  0DB6               	rlf	___flmul@grs+1,f
  6245     064E  0DB7               	rlf	___flmul@grs+2,f
  6246     064F  0DB8               	rlf	___flmul@grs+3,f
  6247     0650  0BAE               	decfsz	??___flmul,f
  6248     0651  2E4B               	goto	u4225
  6249     0652                     l3272:
  6250     0652  0839               	movf	___flmul@bexp,w
  6251     0653  0734               	addwf	___flmul@aexp,w
  6252     0654  00AE               	movwf	??___flmul
  6253     0655  01AF               	clrf	??___flmul+1
  6254     0656  0DAF               	rlf	??___flmul+1,f
  6255     0657  082E               	movf	??___flmul,w
  6256     0658  3E82               	addlw	130
  6257     0659  00BE               	movwf	___flmul@temp
  6258     065A  082F               	movf	??___flmul+1,w
  6259     065B  1803               	skipnc
  6260     065C  3E01               	addlw	1
  6261     065D  3EFF               	addlw	255
  6262     065E  00BF               	movwf	___flmul@temp+1
  6263     065F  2E7D               	goto	l3284
  6264     0660                     l3274:
  6265     0660  3001               	movlw	1
  6266     0661  00AE               	movwf	??___flmul
  6267     0662                     u4235:
  6268     0662  1003               	clrc
  6269     0663  0DBA               	rlf	___flmul@prod,f
  6270     0664  0DBB               	rlf	___flmul@prod+1,f
  6271     0665  0DBC               	rlf	___flmul@prod+2,f
  6272     0666  0DBD               	rlf	___flmul@prod+3,f
  6273     0667  0BAE               	decfsz	??___flmul,f
  6274     0668  2E62               	goto	u4235
  6275     0669                     l3276:
  6276     0669  1FB8               	btfss	___flmul@grs+3,7
  6277     066A  2E6C               	goto	u4241
  6278     066B  2E6D               	goto	u4240
  6279     066C                     u4241:
  6280     066C  2E6E               	goto	l3280
  6281     066D                     u4240:
  6282     066D                     l3278:
  6283     066D  143A               	bsf	___flmul@prod,0
  6284     066E                     l3280:
  6285     066E  3001               	movlw	1
  6286     066F  00AE               	movwf	??___flmul
  6287     0670                     u4255:
  6288     0670  1003               	clrc
  6289     0671  0DB5               	rlf	___flmul@grs,f
  6290     0672  0DB6               	rlf	___flmul@grs+1,f
  6291     0673  0DB7               	rlf	___flmul@grs+2,f
  6292     0674  0DB8               	rlf	___flmul@grs+3,f
  6293     0675  0BAE               	decfsz	??___flmul,f
  6294     0676  2E70               	goto	u4255
  6295     0677                     l3282:
  6296     0677  30FF               	movlw	255
  6297     0678  07BE               	addwf	___flmul@temp,f
  6298     0679  1803               	skipnc
  6299     067A  0ABF               	incf	___flmul@temp+1,f
  6300     067B  30FF               	movlw	255
  6301     067C  07BF               	addwf	___flmul@temp+1,f
  6302     067D                     l3284:
  6303     067D  1FBC               	btfss	___flmul@prod+2,7
  6304     067E  2E80               	goto	u4261
  6305     067F  2E81               	goto	u4260
  6306     0680                     u4261:
  6307     0680  2E60               	goto	l3274
  6308     0681                     u4260:
  6309     0681                     l3286:
  6310     0681  01B4               	clrf	___flmul@aexp
  6311     0682                     l3288:
  6312     0682  1FB8               	btfss	___flmul@grs+3,7
  6313     0683  2E85               	goto	u4271
  6314     0684  2E86               	goto	u4270
  6315     0685                     u4271:
  6316     0685  2EA2               	goto	l3296
  6317     0686                     u4270:
  6318     0686                     l3290:
  6319     0686  30FF               	movlw	255
  6320     0687  0535               	andwf	___flmul@grs,w
  6321     0688  00AE               	movwf	??___flmul
  6322     0689  30FF               	movlw	255
  6323     068A  0536               	andwf	___flmul@grs+1,w
  6324     068B  00AF               	movwf	??___flmul+1
  6325     068C  30FF               	movlw	255
  6326     068D  0537               	andwf	___flmul@grs+2,w
  6327     068E  00B0               	movwf	??___flmul+2
  6328     068F  307F               	movlw	127
  6329     0690  0538               	andwf	___flmul@grs+3,w
  6330     0691  00B1               	movwf	??___flmul+3
  6331     0692  0831               	movf	??___flmul+3,w
  6332     0693  0430               	iorwf	??___flmul+2,w
  6333     0694  042F               	iorwf	??___flmul+1,w
  6334     0695  042E               	iorwf	??___flmul,w
  6335     0696  1903               	skipnz
  6336     0697  2E99               	goto	u4281
  6337     0698  2E9A               	goto	u4280
  6338     0699                     u4281:
  6339     0699  2E9D               	goto	l797
  6340     069A                     u4280:
  6341     069A                     l3292:
  6342     069A  01B4               	clrf	___flmul@aexp
  6343     069B  0AB4               	incf	___flmul@aexp,f
  6344     069C  2EA2               	goto	l3296
  6345     069D                     l797:
  6346     069D  1C3A               	btfss	___flmul@prod,0
  6347     069E  2EA0               	goto	u4291
  6348     069F  2EA1               	goto	u4290
  6349     06A0                     u4291:
  6350     06A0  2EA2               	goto	l3296
  6351     06A1                     u4290:
  6352     06A1  2E9A               	goto	l3292
  6353     06A2                     l3296:
  6354     06A2  0834               	movf	___flmul@aexp,w
  6355     06A3  1903               	btfsc	3,2
  6356     06A4  2EA6               	goto	u4301
  6357     06A5  2EA7               	goto	u4300
  6358     06A6                     u4301:
  6359     06A6  2ED8               	goto	l3306
  6360     06A7                     u4300:
  6361     06A7                     l3298:
  6362     06A7  3001               	movlw	1
  6363     06A8  07BA               	addwf	___flmul@prod,f
  6364     06A9  3000               	movlw	0
  6365     06AA  1803               	skipnc
  6366     06AB  3001               	movlw	1
  6367     06AC  07BB               	addwf	___flmul@prod+1,f
  6368     06AD  3000               	movlw	0
  6369     06AE  1803               	skipnc
  6370     06AF  3001               	movlw	1
  6371     06B0  07BC               	addwf	___flmul@prod+2,f
  6372     06B1  3000               	movlw	0
  6373     06B2  1803               	skipnc
  6374     06B3  3001               	movlw	1
  6375     06B4  07BD               	addwf	___flmul@prod+3,f
  6376     06B5                     l3300:
  6377     06B5  1C3D               	btfss	___flmul@prod+3,0
  6378     06B6  2EB8               	goto	u4311
  6379     06B7  2EB9               	goto	u4310
  6380     06B8                     u4311:
  6381     06B8  2ED8               	goto	l3306
  6382     06B9                     u4310:
  6383     06B9                     l3302:
  6384     06B9  083A               	movf	___flmul@prod,w
  6385     06BA  00AE               	movwf	??___flmul
  6386     06BB  083B               	movf	___flmul@prod+1,w
  6387     06BC  00AF               	movwf	??___flmul+1
  6388     06BD  083C               	movf	___flmul@prod+2,w
  6389     06BE  00B0               	movwf	??___flmul+2
  6390     06BF  083D               	movf	___flmul@prod+3,w
  6391     06C0  00B1               	movwf	??___flmul+3
  6392     06C1  3001               	movlw	1
  6393     06C2  00B2               	movwf	??___flmul+4
  6394     06C3                     u4325:
  6395     06C3  0D31               	rlf	??___flmul+3,w
  6396     06C4  0CB1               	rrf	??___flmul+3,f
  6397     06C5  0CB0               	rrf	??___flmul+2,f
  6398     06C6  0CAF               	rrf	??___flmul+1,f
  6399     06C7  0CAE               	rrf	??___flmul,f
  6400     06C8                     u4320:
  6401     06C8  0BB2               	decfsz	??___flmul+4,f
  6402     06C9  2EC3               	goto	u4325
  6403     06CA  0831               	movf	??___flmul+3,w
  6404     06CB  00BD               	movwf	___flmul@prod+3
  6405     06CC  0830               	movf	??___flmul+2,w
  6406     06CD  00BC               	movwf	___flmul@prod+2
  6407     06CE  082F               	movf	??___flmul+1,w
  6408     06CF  00BB               	movwf	___flmul@prod+1
  6409     06D0  082E               	movf	??___flmul,w
  6410     06D1  00BA               	movwf	___flmul@prod
  6411     06D2                     l3304:
  6412     06D2  3001               	movlw	1
  6413     06D3  07BE               	addwf	___flmul@temp,f
  6414     06D4  1803               	skipnc
  6415     06D5  0ABF               	incf	___flmul@temp+1,f
  6416     06D6  3000               	movlw	0
  6417     06D7  07BF               	addwf	___flmul@temp+1,f
  6418     06D8                     l3306:
  6419     06D8  083F               	movf	___flmul@temp+1,w
  6420     06D9  3A80               	xorlw	128
  6421     06DA  00FF               	movwf	btemp+1
  6422     06DB  3080               	movlw	128
  6423     06DC  027F               	subwf	btemp+1,w
  6424     06DD  1D03               	skipz
  6425     06DE  2EE1               	goto	u4335
  6426     06DF  30FF               	movlw	255
  6427     06E0  023E               	subwf	___flmul@temp,w
  6428     06E1                     u4335:
  6429     06E1  1C03               	skipc
  6430     06E2  2EE4               	goto	u4331
  6431     06E3  2EE5               	goto	u4330
  6432     06E4                     u4331:
  6433     06E4  2EF0               	goto	l3310
  6434     06E5                     u4330:
  6435     06E5                     l3308:
  6436     06E5  307F               	movlw	127
  6437     06E6  1283               	bcf	3,5	;RP0=0, select bank0
  6438     06E7  1303               	bcf	3,6	;RP1=0, select bank0
  6439     06E8  00BD               	movwf	___flmul@prod+3
  6440     06E9  3080               	movlw	128
  6441     06EA  00BC               	movwf	___flmul@prod+2
  6442     06EB  3000               	movlw	0
  6443     06EC  00BB               	movwf	___flmul@prod+1
  6444     06ED  3000               	movlw	0
  6445     06EE  00BA               	movwf	___flmul@prod
  6446     06EF  2F21               	goto	l3324
  6447     06F0                     l3310:
  6448     06F0  1283               	bcf	3,5	;RP0=0, select bank0
  6449     06F1  1303               	bcf	3,6	;RP1=0, select bank0
  6450     06F2  083F               	movf	___flmul@temp+1,w
  6451     06F3  3A80               	xorlw	128
  6452     06F4  00FF               	movwf	btemp+1
  6453     06F5  3080               	movlw	128
  6454     06F6  027F               	subwf	btemp+1,w
  6455     06F7  1D03               	skipz
  6456     06F8  2EFB               	goto	u4345
  6457     06F9  3001               	movlw	1
  6458     06FA  023E               	subwf	___flmul@temp,w
  6459     06FB                     u4345:
  6460     06FB  1803               	skipnc
  6461     06FC  2EFE               	goto	u4341
  6462     06FD  2EFF               	goto	u4340
  6463     06FE                     u4341:
  6464     06FE  2F0B               	goto	l3316
  6465     06FF                     u4340:
  6466     06FF                     l3312:
  6467     06FF  3000               	movlw	0
  6468     0700  1283               	bcf	3,5	;RP0=0, select bank0
  6469     0701  1303               	bcf	3,6	;RP1=0, select bank0
  6470     0702  00BD               	movwf	___flmul@prod+3
  6471     0703  3000               	movlw	0
  6472     0704  00BC               	movwf	___flmul@prod+2
  6473     0705  3000               	movlw	0
  6474     0706  00BB               	movwf	___flmul@prod+1
  6475     0707  3000               	movlw	0
  6476     0708  00BA               	movwf	___flmul@prod
  6477     0709                     l3314:
  6478     0709  01B3               	clrf	___flmul@sign
  6479     070A  2F21               	goto	l3324
  6480     070B                     l3316:
  6481     070B  1283               	bcf	3,5	;RP0=0, select bank0
  6482     070C  1303               	bcf	3,6	;RP1=0, select bank0
  6483     070D  083E               	movf	___flmul@temp,w
  6484     070E  00B9               	movwf	___flmul@bexp
  6485     070F  30FF               	movlw	255
  6486     0710  05BA               	andwf	___flmul@prod,f
  6487     0711  30FF               	movlw	255
  6488     0712  05BB               	andwf	___flmul@prod+1,f
  6489     0713  307F               	movlw	127
  6490     0714  05BC               	andwf	___flmul@prod+2,f
  6491     0715  3000               	movlw	0
  6492     0716  05BD               	andwf	___flmul@prod+3,f
  6493     0717                     l3318:
  6494     0717  1C39               	btfss	___flmul@bexp,0
  6495     0718  2F1A               	goto	u4351
  6496     0719  2F1B               	goto	u4350
  6497     071A                     u4351:
  6498     071A  2F1C               	goto	l3322
  6499     071B                     u4350:
  6500     071B                     l3320:
  6501     071B  17BC               	bsf	___flmul@prod+2,7
  6502     071C                     l3322:
  6503     071C  0839               	movf	___flmul@bexp,w
  6504     071D  00AE               	movwf	??___flmul
  6505     071E  1003               	clrc
  6506     071F  0C2E               	rrf	??___flmul,w
  6507     0720  00BD               	movwf	___flmul@prod+3
  6508     0721                     l3324:
  6509     0721  0833               	movf	___flmul@sign,w
  6510     0722  00FF               	movwf	btemp+1
  6511     0723  087F               	movf	btemp+1,w
  6512     0724  04BD               	iorwf	___flmul@prod+3,f
  6513     0725                     l3326:
  6514     0725  083D               	movf	___flmul@prod+3,w
  6515     0726  00A9               	movwf	?___flmul+3
  6516     0727  083C               	movf	___flmul@prod+2,w
  6517     0728  00A8               	movwf	?___flmul+2
  6518     0729  083B               	movf	___flmul@prod+1,w
  6519     072A  00A7               	movwf	?___flmul+1
  6520     072B  083A               	movf	___flmul@prod,w
  6521     072C  00A6               	movwf	?___flmul
  6522     072D                     l791:
  6523     072D  0008               	return
  6524     072E                     __end_of___flmul:
  6525                           
  6526                           	psect	text12
  6527     15EC                     __ptext12:	
  6528 ;; *************** function __Umul8_16 *****************
  6529 ;; Defined at:
  6530 ;;		line 4 in file "C:\Program Files\Microchip\xc8\v2.46\pic\sources\c99\common\Umul8_16.c"
  6531 ;; Parameters:    Size  Location     Type
  6532 ;;  multiplier      1    wreg     unsigned char 
  6533 ;;  multiplicand    1    2[COMMON] unsigned char 
  6534 ;; Auto vars:     Size  Location     Type
  6535 ;;  multiplier      1    4[BANK0 ] unsigned char 
  6536 ;;  word_mpld       2    2[BANK0 ] unsigned short 
  6537 ;;  product         2    0[BANK0 ] unsigned short 
  6538 ;; Return value:  Size  Location     Type
  6539 ;;                  2    2[COMMON] unsigned int 
  6540 ;; Registers used:
  6541 ;;		wreg, status,2, status,0
  6542 ;; Tracked objects:
  6543 ;;		On entry : 0/0
  6544 ;;		On exit  : 0/0
  6545 ;;		Unchanged: 0/0
  6546 ;; Data sizes:     COMMON   BANK0   BANK1   BANK3   BANK2
  6547 ;;      Params:         2       0       0       0       0
  6548 ;;      Locals:         0       5       0       0       0
  6549 ;;      Temps:          2       0       0       0       0
  6550 ;;      Totals:         4       5       0       0       0
  6551 ;;Total ram usage:        9 bytes
  6552 ;; Hardware stack levels used: 1
  6553 ;; Hardware stack levels required when called: 1
  6554 ;; This function calls:
  6555 ;;		Nothing
  6556 ;; This function is called by:
  6557 ;;		___flmul
  6558 ;; This function uses a non-reentrant model
  6559 ;;
  6560                           
  6561     15EC                     __Umul8_16:	
  6562                           ;psect for function __Umul8_16
  6563                           
  6564                           
  6565                           ;incstack = 0
  6566                           ; Regs used in __Umul8_16: [wreg+status,2+status,0]
  6567                           ;__Umul8_16@multiplier stored from wreg
  6568     15EC  1283               	bcf	3,5	;RP0=0, select bank0
  6569     15ED  1303               	bcf	3,6	;RP1=0, select bank0
  6570     15EE  00A4               	movwf	__Umul8_16@multiplier
  6571     15EF                     l3140:
  6572     15EF  01A0               	clrf	__Umul8_16@product
  6573     15F0  01A1               	clrf	__Umul8_16@product+1
  6574     15F1                     l3142:
  6575     15F1  0872               	movf	__Umul8_16@multiplicand,w
  6576     15F2  00F4               	movwf	??__Umul8_16
  6577     15F3  01F5               	clrf	??__Umul8_16+1
  6578     15F4  0874               	movf	??__Umul8_16,w
  6579     15F5  00A2               	movwf	__Umul8_16@word_mpld
  6580     15F6  0875               	movf	??__Umul8_16+1,w
  6581     15F7  00A3               	movwf	__Umul8_16@word_mpld+1
  6582     15F8                     l3144:
  6583     15F8  1C24               	btfss	__Umul8_16@multiplier,0
  6584     15F9  2DFB               	goto	u3941
  6585     15FA  2DFC               	goto	u3940
  6586     15FB                     u3941:
  6587     15FB  2E02               	goto	l810
  6588     15FC                     u3940:
  6589     15FC                     l3146:
  6590     15FC  0822               	movf	__Umul8_16@word_mpld,w
  6591     15FD  07A0               	addwf	__Umul8_16@product,f
  6592     15FE  1803               	skipnc
  6593     15FF  0AA1               	incf	__Umul8_16@product+1,f
  6594     1600  0823               	movf	__Umul8_16@word_mpld+1,w
  6595     1601  07A1               	addwf	__Umul8_16@product+1,f
  6596     1602                     l810:
  6597     1602  3001               	movlw	1
  6598     1603                     u3955:
  6599     1603  1003               	clrc
  6600     1604  0DA2               	rlf	__Umul8_16@word_mpld,f
  6601     1605  0DA3               	rlf	__Umul8_16@word_mpld+1,f
  6602     1606  3EFF               	addlw	-1
  6603     1607  1D03               	skipz
  6604     1608  2E03               	goto	u3955
  6605     1609  1003               	clrc
  6606     160A  0CA4               	rrf	__Umul8_16@multiplier,f
  6607     160B                     l3148:
  6608     160B  0824               	movf	__Umul8_16@multiplier,w
  6609     160C  1D03               	btfss	3,2
  6610     160D  2E0F               	goto	u3961
  6611     160E  2E10               	goto	u3960
  6612     160F                     u3961:
  6613     160F  2DF8               	goto	l3144
  6614     1610                     u3960:
  6615     1610                     l3150:
  6616     1610  0821               	movf	__Umul8_16@product+1,w
  6617     1611  00F3               	movwf	?__Umul8_16+1
  6618     1612  0820               	movf	__Umul8_16@product,w
  6619     1613  00F2               	movwf	?__Umul8_16
  6620     1614                     l812:
  6621     1614  0008               	return
  6622     1615                     __end_of__Umul8_16:
  6623                           
  6624                           	psect	text13
  6625     091A                     __ptext13:	
  6626 ;; *************** function ___flge *****************
  6627 ;; Defined at:
  6628 ;;		line 4 in file "C:\Program Files\Microchip\xc8\v2.46\pic\sources\c99\common\flge.c"
  6629 ;; Parameters:    Size  Location     Type
  6630 ;;  ff1             4   40[BANK0 ] unsigned int 
  6631 ;;  ff2             4   44[BANK0 ] unsigned int 
  6632 ;; Auto vars:     Size  Location     Type
  6633 ;;		None
  6634 ;; Return value:  Size  Location     Type
  6635 ;;		None               void
  6636 ;; Registers used:
  6637 ;;		wreg, status,2, status,0
  6638 ;; Tracked objects:
  6639 ;;		On entry : 0/0
  6640 ;;		On exit  : 0/0
  6641 ;;		Unchanged: 0/0
  6642 ;; Data sizes:     COMMON   BANK0   BANK1   BANK3   BANK2
  6643 ;;      Params:         0       8       0       0       0
  6644 ;;      Locals:         0       0       0       0       0
  6645 ;;      Temps:          0       4       0       0       0
  6646 ;;      Totals:         0      12       0       0       0
  6647 ;;Total ram usage:       12 bytes
  6648 ;; Hardware stack levels used: 1
  6649 ;; Hardware stack levels required when called: 1
  6650 ;; This function calls:
  6651 ;;		Nothing
  6652 ;; This function is called by:
  6653 ;;		_run_program
  6654 ;; This function uses a non-reentrant model
  6655 ;;
  6656                           
  6657     091A                     ___flge:	
  6658                           ;psect for function ___flge
  6659                           
  6660     091A                     l2370:	
  6661                           ;incstack = 0
  6662                           ; Regs used in ___flge: [wreg+status,2+status,0]
  6663                           
  6664     091A  3000               	movlw	0
  6665     091B  1283               	bcf	3,5	;RP0=0, select bank0
  6666     091C  1303               	bcf	3,6	;RP1=0, select bank0
  6667     091D  0548               	andwf	___flge@ff1,w
  6668     091E  00D0               	movwf	??___flge
  6669     091F  3000               	movlw	0
  6670     0920  0549               	andwf	___flge@ff1+1,w
  6671     0921  00D1               	movwf	??___flge+1
  6672     0922  3080               	movlw	128
  6673     0923  054A               	andwf	___flge@ff1+2,w
  6674     0924  00D2               	movwf	??___flge+2
  6675     0925  307F               	movlw	127
  6676     0926  054B               	andwf	___flge@ff1+3,w
  6677     0927  00D3               	movwf	??___flge+3
  6678     0928  0853               	movf	??___flge+3,w
  6679     0929  0452               	iorwf	??___flge+2,w
  6680     092A  0451               	iorwf	??___flge+1,w
  6681     092B  0450               	iorwf	??___flge,w
  6682     092C  1D03               	skipz
  6683     092D  292F               	goto	u2731
  6684     092E  2930               	goto	u2730
  6685     092F                     u2731:
  6686     092F  2938               	goto	l572
  6687     0930                     u2730:
  6688     0930                     l2372:
  6689     0930  3000               	movlw	0
  6690     0931  00CB               	movwf	___flge@ff1+3
  6691     0932  3000               	movlw	0
  6692     0933  00CA               	movwf	___flge@ff1+2
  6693     0934  3000               	movlw	0
  6694     0935  00C9               	movwf	___flge@ff1+1
  6695     0936  3000               	movlw	0
  6696     0937  00C8               	movwf	___flge@ff1
  6697     0938                     l572:
  6698     0938  3000               	movlw	0
  6699     0939  054C               	andwf	___flge@ff2,w
  6700     093A  00D0               	movwf	??___flge
  6701     093B  3000               	movlw	0
  6702     093C  054D               	andwf	___flge@ff2+1,w
  6703     093D  00D1               	movwf	??___flge+1
  6704     093E  3080               	movlw	128
  6705     093F  054E               	andwf	___flge@ff2+2,w
  6706     0940  00D2               	movwf	??___flge+2
  6707     0941  307F               	movlw	127
  6708     0942  054F               	andwf	___flge@ff2+3,w
  6709     0943  00D3               	movwf	??___flge+3
  6710     0944  0853               	movf	??___flge+3,w
  6711     0945  0452               	iorwf	??___flge+2,w
  6712     0946  0451               	iorwf	??___flge+1,w
  6713     0947  0450               	iorwf	??___flge,w
  6714     0948  1D03               	skipz
  6715     0949  294B               	goto	u2741
  6716     094A  294C               	goto	u2740
  6717     094B                     u2741:
  6718     094B  2954               	goto	l2376
  6719     094C                     u2740:
  6720     094C                     l2374:
  6721     094C  3000               	movlw	0
  6722     094D  00CF               	movwf	___flge@ff2+3
  6723     094E  3000               	movlw	0
  6724     094F  00CE               	movwf	___flge@ff2+2
  6725     0950  3000               	movlw	0
  6726     0951  00CD               	movwf	___flge@ff2+1
  6727     0952  3000               	movlw	0
  6728     0953  00CC               	movwf	___flge@ff2
  6729     0954                     l2376:
  6730     0954  1FCB               	btfss	___flge@ff1+3,7
  6731     0955  2957               	goto	u2751
  6732     0956  2958               	goto	u2750
  6733     0957                     u2751:
  6734     0957  297C               	goto	l2380
  6735     0958                     u2750:
  6736     0958                     l2378:
  6737     0958  3000               	movlw	0
  6738     0959  00D0               	movwf	??___flge
  6739     095A  3000               	movlw	0
  6740     095B  00D1               	movwf	??___flge+1
  6741     095C  3000               	movlw	0
  6742     095D  00D2               	movwf	??___flge+2
  6743     095E  3080               	movlw	128
  6744     095F  00D3               	movwf	??___flge+3
  6745     0960  0848               	movf	___flge@ff1,w
  6746     0961  02D0               	subwf	??___flge,f
  6747     0962  0849               	movf	___flge@ff1+1,w
  6748     0963  1C03               	skipc
  6749     0964  0F49               	incfsz	___flge@ff1+1,w
  6750     0965  2967               	goto	u2761
  6751     0966  2968               	goto	u2762
  6752     0967                     u2761:
  6753     0967  02D1               	subwf	??___flge+1,f
  6754     0968                     u2762:
  6755     0968  084A               	movf	___flge@ff1+2,w
  6756     0969  1C03               	skipc
  6757     096A  0F4A               	incfsz	___flge@ff1+2,w
  6758     096B  296D               	goto	u2763
  6759     096C  296E               	goto	u2764
  6760     096D                     u2763:
  6761     096D  02D2               	subwf	??___flge+2,f
  6762     096E                     u2764:
  6763     096E  084B               	movf	___flge@ff1+3,w
  6764     096F  1C03               	skipc
  6765     0970  0F4B               	incfsz	___flge@ff1+3,w
  6766     0971  2973               	goto	u2765
  6767     0972  2974               	goto	u2766
  6768     0973                     u2765:
  6769     0973  02D3               	subwf	??___flge+3,f
  6770     0974                     u2766:
  6771     0974  0853               	movf	??___flge+3,w
  6772     0975  00CB               	movwf	___flge@ff1+3
  6773     0976  0852               	movf	??___flge+2,w
  6774     0977  00CA               	movwf	___flge@ff1+2
  6775     0978  0851               	movf	??___flge+1,w
  6776     0979  00C9               	movwf	___flge@ff1+1
  6777     097A  0850               	movf	??___flge,w
  6778     097B  00C8               	movwf	___flge@ff1
  6779     097C                     l2380:
  6780     097C  1FCF               	btfss	___flge@ff2+3,7
  6781     097D  297F               	goto	u2771
  6782     097E  2980               	goto	u2770
  6783     097F                     u2771:
  6784     097F  29A4               	goto	l575
  6785     0980                     u2770:
  6786     0980                     l2382:
  6787     0980  3000               	movlw	0
  6788     0981  00D0               	movwf	??___flge
  6789     0982  3000               	movlw	0
  6790     0983  00D1               	movwf	??___flge+1
  6791     0984  3000               	movlw	0
  6792     0985  00D2               	movwf	??___flge+2
  6793     0986  3080               	movlw	128
  6794     0987  00D3               	movwf	??___flge+3
  6795     0988  084C               	movf	___flge@ff2,w
  6796     0989  02D0               	subwf	??___flge,f
  6797     098A  084D               	movf	___flge@ff2+1,w
  6798     098B  1C03               	skipc
  6799     098C  0F4D               	incfsz	___flge@ff2+1,w
  6800     098D  298F               	goto	u2781
  6801     098E  2990               	goto	u2782
  6802     098F                     u2781:
  6803     098F  02D1               	subwf	??___flge+1,f
  6804     0990                     u2782:
  6805     0990  084E               	movf	___flge@ff2+2,w
  6806     0991  1C03               	skipc
  6807     0992  0F4E               	incfsz	___flge@ff2+2,w
  6808     0993  2995               	goto	u2783
  6809     0994  2996               	goto	u2784
  6810     0995                     u2783:
  6811     0995  02D2               	subwf	??___flge+2,f
  6812     0996                     u2784:
  6813     0996  084F               	movf	___flge@ff2+3,w
  6814     0997  1C03               	skipc
  6815     0998  0F4F               	incfsz	___flge@ff2+3,w
  6816     0999  299B               	goto	u2785
  6817     099A  299C               	goto	u2786
  6818     099B                     u2785:
  6819     099B  02D3               	subwf	??___flge+3,f
  6820     099C                     u2786:
  6821     099C  0853               	movf	??___flge+3,w
  6822     099D  00CF               	movwf	___flge@ff2+3
  6823     099E  0852               	movf	??___flge+2,w
  6824     099F  00CE               	movwf	___flge@ff2+2
  6825     09A0  0851               	movf	??___flge+1,w
  6826     09A1  00CD               	movwf	___flge@ff2+1
  6827     09A2  0850               	movf	??___flge,w
  6828     09A3  00CC               	movwf	___flge@ff2
  6829     09A4                     l575:
  6830     09A4  3080               	movlw	128
  6831     09A5  06CB               	xorwf	___flge@ff1+3,f
  6832     09A6  3080               	movlw	128
  6833     09A7  06CF               	xorwf	___flge@ff2+3,f
  6834     09A8  084F               	movf	___flge@ff2+3,w
  6835     09A9  024B               	subwf	___flge@ff1+3,w
  6836     09AA  1D03               	skipz
  6837     09AB  29B6               	goto	u2795
  6838     09AC  084E               	movf	___flge@ff2+2,w
  6839     09AD  024A               	subwf	___flge@ff1+2,w
  6840     09AE  1D03               	skipz
  6841     09AF  29B6               	goto	u2795
  6842     09B0  084D               	movf	___flge@ff2+1,w
  6843     09B1  0249               	subwf	___flge@ff1+1,w
  6844     09B2  1D03               	skipz
  6845     09B3  29B6               	goto	u2795
  6846     09B4  084C               	movf	___flge@ff2,w
  6847     09B5  0248               	subwf	___flge@ff1,w
  6848     09B6                     u2795:
  6849     09B6  1803               	skipnc
  6850     09B7  29B9               	goto	u2791
  6851     09B8  29BA               	goto	u2790
  6852     09B9                     u2791:
  6853     09B9  29BC               	goto	l2386
  6854     09BA                     u2790:
  6855     09BA                     l2384:
  6856     09BA  1003               	clrc
  6857     09BB  29BD               	goto	l580
  6858     09BC                     l2386:
  6859     09BC  1403               	setc
  6860     09BD                     l580:
  6861     09BD  0008               	return
  6862     09BE                     __end_of___flge:
  6863                           
  6864                           	psect	text14
  6865     16ED                     __ptext14:	
  6866 ;; *************** function ___awmod *****************
  6867 ;; Defined at:
  6868 ;;		line 5 in file "C:\Program Files\Microchip\xc8\v2.46\pic\sources\c99\common\awmod.c"
  6869 ;; Parameters:    Size  Location     Type
  6870 ;;  divisor         2    2[COMMON] int 
  6871 ;;  dividend        2    4[COMMON] int 
  6872 ;; Auto vars:     Size  Location     Type
  6873 ;;  sign            1    7[COMMON] unsigned char 
  6874 ;;  counter         1    6[COMMON] unsigned char 
  6875 ;; Return value:  Size  Location     Type
  6876 ;;                  2    2[COMMON] int 
  6877 ;; Registers used:
  6878 ;;		wreg, status,2, status,0, btemp+1
  6879 ;; Tracked objects:
  6880 ;;		On entry : 0/0
  6881 ;;		On exit  : 0/0
  6882 ;;		Unchanged: 0/0
  6883 ;; Data sizes:     COMMON   BANK0   BANK1   BANK3   BANK2
  6884 ;;      Params:         4       0       0       0       0
  6885 ;;      Locals:         2       0       0       0       0
  6886 ;;      Temps:          0       0       0       0       0
  6887 ;;      Totals:         6       0       0       0       0
  6888 ;;Total ram usage:        6 bytes
  6889 ;; Hardware stack levels used: 1
  6890 ;; Hardware stack levels required when called: 1
  6891 ;; This function calls:
  6892 ;;		Nothing
  6893 ;; This function is called by:
  6894 ;;		_run_program
  6895 ;; This function uses a non-reentrant model
  6896 ;;
  6897                           
  6898     16ED                     ___awmod:	
  6899                           ;psect for function ___awmod
  6900                           
  6901     16ED                     l2332:	
  6902                           ;incstack = 0
  6903                           ; Regs used in ___awmod: [wreg+status,2+status,0+btemp+1]
  6904                           
  6905     16ED  01F7               	clrf	___awmod@sign
  6906     16EE                     l2334:
  6907     16EE  1FF5               	btfss	___awmod@dividend+1,7
  6908     16EF  2EF1               	goto	u2641
  6909     16F0  2EF2               	goto	u2640
  6910     16F1                     u2641:
  6911     16F1  2EF9               	goto	l2340
  6912     16F2                     u2640:
  6913     16F2                     l2336:
  6914     16F2  09F4               	comf	___awmod@dividend,f
  6915     16F3  09F5               	comf	___awmod@dividend+1,f
  6916     16F4  0AF4               	incf	___awmod@dividend,f
  6917     16F5  1903               	skipnz
  6918     16F6  0AF5               	incf	___awmod@dividend+1,f
  6919     16F7                     l2338:
  6920     16F7  01F7               	clrf	___awmod@sign
  6921     16F8  0AF7               	incf	___awmod@sign,f
  6922     16F9                     l2340:
  6923     16F9  1FF3               	btfss	___awmod@divisor+1,7
  6924     16FA  2EFC               	goto	u2651
  6925     16FB  2EFD               	goto	u2650
  6926     16FC                     u2651:
  6927     16FC  2F02               	goto	l2344
  6928     16FD                     u2650:
  6929     16FD                     l2342:
  6930     16FD  09F2               	comf	___awmod@divisor,f
  6931     16FE  09F3               	comf	___awmod@divisor+1,f
  6932     16FF  0AF2               	incf	___awmod@divisor,f
  6933     1700  1903               	skipnz
  6934     1701  0AF3               	incf	___awmod@divisor+1,f
  6935     1702                     l2344:
  6936     1702  0872               	movf	___awmod@divisor,w
  6937     1703  0473               	iorwf	___awmod@divisor+1,w
  6938     1704  1903               	btfsc	3,2
  6939     1705  2F07               	goto	u2661
  6940     1706  2F08               	goto	u2660
  6941     1707                     u2661:
  6942     1707  2F37               	goto	l2362
  6943     1708                     u2660:
  6944     1708                     l2346:
  6945     1708  01F6               	clrf	___awmod@counter
  6946     1709  0AF6               	incf	___awmod@counter,f
  6947     170A  2F16               	goto	l2352
  6948     170B                     l2348:
  6949     170B  3001               	movlw	1
  6950     170C                     u2675:
  6951     170C  1003               	clrc
  6952     170D  0DF2               	rlf	___awmod@divisor,f
  6953     170E  0DF3               	rlf	___awmod@divisor+1,f
  6954     170F  3EFF               	addlw	-1
  6955     1710  1D03               	skipz
  6956     1711  2F0C               	goto	u2675
  6957     1712                     l2350:
  6958     1712  3001               	movlw	1
  6959     1713  00FF               	movwf	btemp+1
  6960     1714  087F               	movf	btemp+1,w
  6961     1715  07F6               	addwf	___awmod@counter,f
  6962     1716                     l2352:
  6963     1716  1FF3               	btfss	___awmod@divisor+1,7
  6964     1717  2F19               	goto	u2681
  6965     1718  2F1A               	goto	u2680
  6966     1719                     u2681:
  6967     1719  2F0B               	goto	l2348
  6968     171A                     u2680:
  6969     171A                     l2354:
  6970     171A  0873               	movf	___awmod@divisor+1,w
  6971     171B  0275               	subwf	___awmod@dividend+1,w
  6972     171C  1D03               	skipz
  6973     171D  2F20               	goto	u2695
  6974     171E  0872               	movf	___awmod@divisor,w
  6975     171F  0274               	subwf	___awmod@dividend,w
  6976     1720                     u2695:
  6977     1720  1C03               	skipc
  6978     1721  2F23               	goto	u2691
  6979     1722  2F24               	goto	u2690
  6980     1723                     u2691:
  6981     1723  2F2A               	goto	l2358
  6982     1724                     u2690:
  6983     1724                     l2356:
  6984     1724  0872               	movf	___awmod@divisor,w
  6985     1725  02F4               	subwf	___awmod@dividend,f
  6986     1726  0873               	movf	___awmod@divisor+1,w
  6987     1727  1C03               	skipc
  6988     1728  03F5               	decf	___awmod@dividend+1,f
  6989     1729  02F5               	subwf	___awmod@dividend+1,f
  6990     172A                     l2358:
  6991     172A  3001               	movlw	1
  6992     172B                     u2705:
  6993     172B  1003               	clrc
  6994     172C  0CF3               	rrf	___awmod@divisor+1,f
  6995     172D  0CF2               	rrf	___awmod@divisor,f
  6996     172E  3EFF               	addlw	-1
  6997     172F  1D03               	skipz
  6998     1730  2F2B               	goto	u2705
  6999     1731                     l2360:
  7000     1731  3001               	movlw	1
  7001     1732  02F6               	subwf	___awmod@counter,f
  7002     1733  1D03               	btfss	3,2
  7003     1734  2F36               	goto	u2711
  7004     1735  2F37               	goto	u2710
  7005     1736                     u2711:
  7006     1736  2F1A               	goto	l2354
  7007     1737                     u2710:
  7008     1737                     l2362:
  7009     1737  0877               	movf	___awmod@sign,w
  7010     1738  1903               	btfsc	3,2
  7011     1739  2F3B               	goto	u2721
  7012     173A  2F3C               	goto	u2720
  7013     173B                     u2721:
  7014     173B  2F41               	goto	l2366
  7015     173C                     u2720:
  7016     173C                     l2364:
  7017     173C  09F4               	comf	___awmod@dividend,f
  7018     173D  09F5               	comf	___awmod@dividend+1,f
  7019     173E  0AF4               	incf	___awmod@dividend,f
  7020     173F  1903               	skipnz
  7021     1740  0AF5               	incf	___awmod@dividend+1,f
  7022     1741                     l2366:
  7023     1741  0875               	movf	___awmod@dividend+1,w
  7024     1742  00F3               	movwf	?___awmod+1
  7025     1743  0874               	movf	___awmod@dividend,w
  7026     1744  00F2               	movwf	?___awmod
  7027     1745                     l560:
  7028     1745  0008               	return
  7029     1746                     __end_of___awmod:
  7030                           
  7031                           	psect	text15
  7032     083B                     __ptext15:	
  7033 ;; *************** function ___awdiv *****************
  7034 ;; Defined at:
  7035 ;;		line 5 in file "C:\Program Files\Microchip\xc8\v2.46\pic\sources\c99\common\awdiv.c"
  7036 ;; Parameters:    Size  Location     Type
  7037 ;;  divisor         2    2[COMMON] int 
  7038 ;;  dividend        2    4[COMMON] int 
  7039 ;; Auto vars:     Size  Location     Type
  7040 ;;  quotient        2    8[COMMON] int 
  7041 ;;  sign            1    7[COMMON] unsigned char 
  7042 ;;  counter         1    6[COMMON] unsigned char 
  7043 ;; Return value:  Size  Location     Type
  7044 ;;                  2    2[COMMON] int 
  7045 ;; Registers used:
  7046 ;;		wreg, status,2, status,0, btemp+1
  7047 ;; Tracked objects:
  7048 ;;		On entry : 0/0
  7049 ;;		On exit  : 0/0
  7050 ;;		Unchanged: 0/0
  7051 ;; Data sizes:     COMMON   BANK0   BANK1   BANK3   BANK2
  7052 ;;      Params:         4       0       0       0       0
  7053 ;;      Locals:         4       0       0       0       0
  7054 ;;      Temps:          0       0       0       0       0
  7055 ;;      Totals:         8       0       0       0       0
  7056 ;;Total ram usage:        8 bytes
  7057 ;; Hardware stack levels used: 1
  7058 ;; Hardware stack levels required when called: 1
  7059 ;; This function calls:
  7060 ;;		Nothing
  7061 ;; This function is called by:
  7062 ;;		_run_program
  7063 ;; This function uses a non-reentrant model
  7064 ;;
  7065                           
  7066     083B                     ___awdiv:	
  7067                           ;psect for function ___awdiv
  7068                           
  7069     083B                     l2288:	
  7070                           ;incstack = 0
  7071                           ; Regs used in ___awdiv: [wreg+status,2+status,0+btemp+1]
  7072                           
  7073     083B  01F7               	clrf	___awdiv@sign
  7074     083C                     l2290:
  7075     083C  1FF3               	btfss	___awdiv@divisor+1,7
  7076     083D  283F               	goto	u2541
  7077     083E  2840               	goto	u2540
  7078     083F                     u2541:
  7079     083F  2847               	goto	l2296
  7080     0840                     u2540:
  7081     0840                     l2292:
  7082     0840  09F2               	comf	___awdiv@divisor,f
  7083     0841  09F3               	comf	___awdiv@divisor+1,f
  7084     0842  0AF2               	incf	___awdiv@divisor,f
  7085     0843  1903               	skipnz
  7086     0844  0AF3               	incf	___awdiv@divisor+1,f
  7087     0845                     l2294:
  7088     0845  01F7               	clrf	___awdiv@sign
  7089     0846  0AF7               	incf	___awdiv@sign,f
  7090     0847                     l2296:
  7091     0847  1FF5               	btfss	___awdiv@dividend+1,7
  7092     0848  284A               	goto	u2551
  7093     0849  284B               	goto	u2550
  7094     084A                     u2551:
  7095     084A  2854               	goto	l2302
  7096     084B                     u2550:
  7097     084B                     l2298:
  7098     084B  09F4               	comf	___awdiv@dividend,f
  7099     084C  09F5               	comf	___awdiv@dividend+1,f
  7100     084D  0AF4               	incf	___awdiv@dividend,f
  7101     084E  1903               	skipnz
  7102     084F  0AF5               	incf	___awdiv@dividend+1,f
  7103     0850                     l2300:
  7104     0850  3001               	movlw	1
  7105     0851  00FF               	movwf	btemp+1
  7106     0852  087F               	movf	btemp+1,w
  7107     0853  06F7               	xorwf	___awdiv@sign,f
  7108     0854                     l2302:
  7109     0854  01F8               	clrf	___awdiv@quotient
  7110     0855  01F9               	clrf	___awdiv@quotient+1
  7111     0856                     l2304:
  7112     0856  0872               	movf	___awdiv@divisor,w
  7113     0857  0473               	iorwf	___awdiv@divisor+1,w
  7114     0858  1903               	btfsc	3,2
  7115     0859  285B               	goto	u2561
  7116     085A  285C               	goto	u2560
  7117     085B                     u2561:
  7118     085B  2893               	goto	l2324
  7119     085C                     u2560:
  7120     085C                     l2306:
  7121     085C  01F6               	clrf	___awdiv@counter
  7122     085D  0AF6               	incf	___awdiv@counter,f
  7123     085E  286A               	goto	l2312
  7124     085F                     l2308:
  7125     085F  3001               	movlw	1
  7126     0860                     u2575:
  7127     0860  1003               	clrc
  7128     0861  0DF2               	rlf	___awdiv@divisor,f
  7129     0862  0DF3               	rlf	___awdiv@divisor+1,f
  7130     0863  3EFF               	addlw	-1
  7131     0864  1D03               	skipz
  7132     0865  2860               	goto	u2575
  7133     0866                     l2310:
  7134     0866  3001               	movlw	1
  7135     0867  00FF               	movwf	btemp+1
  7136     0868  087F               	movf	btemp+1,w
  7137     0869  07F6               	addwf	___awdiv@counter,f
  7138     086A                     l2312:
  7139     086A  1FF3               	btfss	___awdiv@divisor+1,7
  7140     086B  286D               	goto	u2581
  7141     086C  286E               	goto	u2580
  7142     086D                     u2581:
  7143     086D  285F               	goto	l2308
  7144     086E                     u2580:
  7145     086E                     l2314:
  7146     086E  3001               	movlw	1
  7147     086F                     u2595:
  7148     086F  1003               	clrc
  7149     0870  0DF8               	rlf	___awdiv@quotient,f
  7150     0871  0DF9               	rlf	___awdiv@quotient+1,f
  7151     0872  3EFF               	addlw	-1
  7152     0873  1D03               	skipz
  7153     0874  286F               	goto	u2595
  7154     0875  0873               	movf	___awdiv@divisor+1,w
  7155     0876  0275               	subwf	___awdiv@dividend+1,w
  7156     0877  1D03               	skipz
  7157     0878  287B               	goto	u2605
  7158     0879  0872               	movf	___awdiv@divisor,w
  7159     087A  0274               	subwf	___awdiv@dividend,w
  7160     087B                     u2605:
  7161     087B  1C03               	skipc
  7162     087C  287E               	goto	u2601
  7163     087D  287F               	goto	u2600
  7164     087E                     u2601:
  7165     087E  2886               	goto	l2320
  7166     087F                     u2600:
  7167     087F                     l2316:
  7168     087F  0872               	movf	___awdiv@divisor,w
  7169     0880  02F4               	subwf	___awdiv@dividend,f
  7170     0881  0873               	movf	___awdiv@divisor+1,w
  7171     0882  1C03               	skipc
  7172     0883  03F5               	decf	___awdiv@dividend+1,f
  7173     0884  02F5               	subwf	___awdiv@dividend+1,f
  7174     0885                     l2318:
  7175     0885  1478               	bsf	___awdiv@quotient,0
  7176     0886                     l2320:
  7177     0886  3001               	movlw	1
  7178     0887                     u2615:
  7179     0887  1003               	clrc
  7180     0888  0CF3               	rrf	___awdiv@divisor+1,f
  7181     0889  0CF2               	rrf	___awdiv@divisor,f
  7182     088A  3EFF               	addlw	-1
  7183     088B  1D03               	skipz
  7184     088C  2887               	goto	u2615
  7185     088D                     l2322:
  7186     088D  3001               	movlw	1
  7187     088E  02F6               	subwf	___awdiv@counter,f
  7188     088F  1D03               	btfss	3,2
  7189     0890  2892               	goto	u2621
  7190     0891  2893               	goto	u2620
  7191     0892                     u2621:
  7192     0892  286E               	goto	l2314
  7193     0893                     u2620:
  7194     0893                     l2324:
  7195     0893  0877               	movf	___awdiv@sign,w
  7196     0894  1903               	btfsc	3,2
  7197     0895  2897               	goto	u2631
  7198     0896  2898               	goto	u2630
  7199     0897                     u2631:
  7200     0897  289D               	goto	l2328
  7201     0898                     u2630:
  7202     0898                     l2326:
  7203     0898  09F8               	comf	___awdiv@quotient,f
  7204     0899  09F9               	comf	___awdiv@quotient+1,f
  7205     089A  0AF8               	incf	___awdiv@quotient,f
  7206     089B  1903               	skipnz
  7207     089C  0AF9               	incf	___awdiv@quotient+1,f
  7208     089D                     l2328:
  7209     089D  0879               	movf	___awdiv@quotient+1,w
  7210     089E  00F3               	movwf	?___awdiv+1
  7211     089F  0878               	movf	___awdiv@quotient,w
  7212     08A0  00F2               	movwf	?___awdiv
  7213     08A1                     l547:
  7214     08A1  0008               	return
  7215     08A2                     __end_of___awdiv:
  7216                           
  7217                           	psect	text16
  7218     17A1                     __ptext16:	
  7219 ;; *************** function _read_digital_keypad *****************
  7220 ;; Defined at:
  7221 ;;		line 10 in file "digital_keypad.c"
  7222 ;; Parameters:    Size  Location     Type
  7223 ;;  mode            1    wreg     unsigned char 
  7224 ;; Auto vars:     Size  Location     Type
  7225 ;;  mode            1    3[COMMON] unsigned char 
  7226 ;; Return value:  Size  Location     Type
  7227 ;;                  1    wreg      unsigned char 
  7228 ;; Registers used:
  7229 ;;		wreg, status,2, status,0, btemp+1
  7230 ;; Tracked objects:
  7231 ;;		On entry : 0/0
  7232 ;;		On exit  : 0/0
  7233 ;;		Unchanged: 0/0
  7234 ;; Data sizes:     COMMON   BANK0   BANK1   BANK3   BANK2
  7235 ;;      Params:         0       0       0       0       0
  7236 ;;      Locals:         1       0       0       0       0
  7237 ;;      Temps:          1       0       0       0       0
  7238 ;;      Totals:         2       0       0       0       0
  7239 ;;Total ram usage:        2 bytes
  7240 ;; Hardware stack levels used: 1
  7241 ;; Hardware stack levels required when called: 1
  7242 ;; This function calls:
  7243 ;;		Nothing
  7244 ;; This function is called by:
  7245 ;;		_main
  7246 ;; This function uses a non-reentrant model
  7247 ;;
  7248                           
  7249     17A1                     _read_digital_keypad:	
  7250                           ;psect for function _read_digital_keypad
  7251                           
  7252                           
  7253                           ;incstack = 0
  7254                           ; Regs used in _read_digital_keypad: [wreg+status,2+status,0+btemp+1]
  7255                           ;read_digital_keypad@mode stored from wreg
  7256     17A1  00F3               	movwf	read_digital_keypad@mode
  7257     17A2                     l2636:
  7258                           
  7259                           ;digital_keypad.c: 10: unsigned char read_digital_keypad(unsigned char mode);digital_key
      +                          pad.c: 11: {;digital_keypad.c: 12:     static unsigned char once = 1;;digital_keypad.c: 
      +                          13:     static unsigned char longpress;;digital_keypad.c: 14:     static unsigned char p
      +                          rev_key;;digital_keypad.c: 16:    if (mode == 0)
  7260     17A2  0873               	movf	read_digital_keypad@mode,w
  7261     17A3  1D03               	btfss	3,2
  7262     17A4  2FA6               	goto	u3411
  7263     17A5  2FA7               	goto	u3410
  7264     17A6                     u3411:
  7265     17A6  2FAC               	goto	l2644
  7266     17A7                     u3410:
  7267     17A7                     l2638:
  7268                           
  7269                           ;digital_keypad.c: 17:     {;digital_keypad.c: 18:         return PORTB & 0x3F;
  7270     17A7  1283               	bcf	3,5	;RP0=0, select bank0
  7271     17A8  1303               	bcf	3,6	;RP1=0, select bank0
  7272     17A9  0806               	movf	6,w	;volatile
  7273     17AA  393F               	andlw	63
  7274     17AB  2FFF               	goto	l268
  7275     17AC                     l2644:
  7276                           
  7277                           ;digital_keypad.c: 21:     {;digital_keypad.c: 22:         if (((PORTB & 0x3F) != 0x3F) 
      +                          && once)
  7278     17AC  303F               	movlw	63
  7279     17AD  1283               	bcf	3,5	;RP0=0, select bank0
  7280     17AE  1303               	bcf	3,6	;RP1=0, select bank0
  7281     17AF  0506               	andwf	6,w	;volatile
  7282     17B0  00F2               	movwf	??_read_digital_keypad
  7283     17B1  303F               	movlw	63
  7284     17B2  0672               	xorwf	??_read_digital_keypad,w
  7285     17B3  1903               	btfsc	3,2
  7286     17B4  2FB6               	goto	u3421
  7287     17B5  2FB7               	goto	u3420
  7288     17B6                     u3421:
  7289     17B6  2FC2               	goto	l2652
  7290     17B7                     u3420:
  7291     17B7                     l2646:
  7292     17B7  086C               	movf	read_digital_keypad@once,w
  7293     17B8  1903               	btfsc	3,2
  7294     17B9  2FBB               	goto	u3431
  7295     17BA  2FBC               	goto	u3430
  7296     17BB                     u3431:
  7297     17BB  2FC2               	goto	l2652
  7298     17BC                     u3430:
  7299     17BC                     l2648:
  7300                           
  7301                           ;digital_keypad.c: 23:         {;digital_keypad.c: 24:             once = 0;
  7302     17BC  01EC               	clrf	read_digital_keypad@once
  7303                           
  7304                           ;digital_keypad.c: 25:             longpress = 0;
  7305     17BD  01E9               	clrf	read_digital_keypad@longpress
  7306     17BE                     l2650:
  7307                           
  7308                           ;digital_keypad.c: 26:             prev_key = PORTB & 0x3F;
  7309     17BE  0806               	movf	6,w	;volatile
  7310     17BF  393F               	andlw	63
  7311     17C0  00E8               	movwf	read_digital_keypad@prev_key
  7312                           
  7313                           ;digital_keypad.c: 27:         }
  7314     17C1  2FFE               	goto	l2682
  7315     17C2                     l2652:
  7316     17C2  086C               	movf	read_digital_keypad@once,w
  7317     17C3  1D03               	btfss	3,2
  7318     17C4  2FC6               	goto	u3441
  7319     17C5  2FC7               	goto	u3440
  7320     17C6                     u3441:
  7321     17C6  2FD9               	goto	l2660
  7322     17C7                     u3440:
  7323     17C7                     l2654:
  7324     17C7  0806               	movf	6,w	;volatile
  7325     17C8  393F               	andlw	63
  7326     17C9  0668               	xorwf	read_digital_keypad@prev_key,w
  7327     17CA  1D03               	skipz
  7328     17CB  2FCD               	goto	u3451
  7329     17CC  2FCE               	goto	u3450
  7330     17CD                     u3451:
  7331     17CD  2FD9               	goto	l2660
  7332     17CE                     u3450:
  7333     17CE                     l2656:
  7334     17CE  301E               	movlw	30
  7335     17CF  0269               	subwf	read_digital_keypad@longpress,w
  7336     17D0  1803               	skipnc
  7337     17D1  2FD3               	goto	u3461
  7338     17D2  2FD4               	goto	u3460
  7339     17D3                     u3461:
  7340     17D3  2FD9               	goto	l2660
  7341     17D4                     u3460:
  7342     17D4                     l2658:
  7343                           
  7344                           ;digital_keypad.c: 30:         {;digital_keypad.c: 31:             longpress++;
  7345     17D4  3001               	movlw	1
  7346     17D5  00FF               	movwf	btemp+1
  7347     17D6  087F               	movf	btemp+1,w
  7348     17D7  07E9               	addwf	read_digital_keypad@longpress,f
  7349                           
  7350                           ;digital_keypad.c: 32:         }
  7351     17D8  2FFE               	goto	l2682
  7352     17D9                     l2660:
  7353     17D9  301E               	movlw	30
  7354     17DA  0669               	xorwf	read_digital_keypad@longpress,w
  7355     17DB  1D03               	btfss	3,2
  7356     17DC  2FDE               	goto	u3471
  7357     17DD  2FDF               	goto	u3470
  7358     17DE                     u3471:
  7359     17DE  2FE6               	goto	l2670
  7360     17DF                     u3470:
  7361     17DF                     l2662:
  7362                           
  7363                           ;digital_keypad.c: 34:         {;digital_keypad.c: 35:             longpress++;
  7364     17DF  3001               	movlw	1
  7365     17E0  00FF               	movwf	btemp+1
  7366     17E1  087F               	movf	btemp+1,w
  7367     17E2  07E9               	addwf	read_digital_keypad@longpress,f
  7368     17E3                     l2664:
  7369                           
  7370                           ;digital_keypad.c: 37:             return 0x80 | prev_key;
  7371     17E3  0868               	movf	read_digital_keypad@prev_key,w
  7372     17E4  3880               	iorlw	128
  7373     17E5  2FFF               	goto	l268
  7374     17E6                     l2670:
  7375     17E6  303F               	movlw	63
  7376     17E7  0506               	andwf	6,w	;volatile
  7377     17E8  00F2               	movwf	??_read_digital_keypad
  7378     17E9  303F               	movlw	63
  7379     17EA  0672               	xorwf	??_read_digital_keypad,w
  7380     17EB  1D03               	btfss	3,2
  7381     17EC  2FEE               	goto	u3481
  7382     17ED  2FEF               	goto	u3480
  7383     17EE                     u3481:
  7384     17EE  2FFE               	goto	l2682
  7385     17EF                     u3480:
  7386     17EF                     l2672:
  7387     17EF  086C               	movf	read_digital_keypad@once,w
  7388     17F0  1D03               	btfss	3,2
  7389     17F1  2FF3               	goto	u3491
  7390     17F2  2FF4               	goto	u3490
  7391     17F3                     u3491:
  7392     17F3  2FFE               	goto	l2682
  7393     17F4                     u3490:
  7394     17F4                     l2674:
  7395                           
  7396                           ;digital_keypad.c: 40:         {;digital_keypad.c: 41:             once = 1;
  7397     17F4  01EC               	clrf	read_digital_keypad@once
  7398     17F5  0AEC               	incf	read_digital_keypad@once,f
  7399     17F6                     l2676:
  7400                           
  7401                           ;digital_keypad.c: 42:             if(longpress < 30)
  7402     17F6  301E               	movlw	30
  7403     17F7  0269               	subwf	read_digital_keypad@longpress,w
  7404     17F8  1803               	skipnc
  7405     17F9  2FFB               	goto	u3501
  7406     17FA  2FFC               	goto	u3500
  7407     17FB                     u3501:
  7408     17FB  2FFE               	goto	l273
  7409     17FC                     u3500:
  7410     17FC                     l2678:
  7411                           
  7412                           ;digital_keypad.c: 43:             {;digital_keypad.c: 45:                 return prev_k
      +                          ey;
  7413     17FC  0868               	movf	read_digital_keypad@prev_key,w
  7414     17FD  2FFF               	goto	l268
  7415     17FE                     l273:
  7416     17FE                     l2682:
  7417                           
  7418                           ;digital_keypad.c: 50:     return 0x3F;
  7419     17FE  303F               	movlw	63
  7420     17FF                     l268:
  7421     17FF  0008               	return
  7422     1800                     __end_of_read_digital_keypad:
  7423                           
  7424                           	psect	text17
  7425     1746                     __ptext17:	
  7426 ;; *************** function _power_on_screen *****************
  7427 ;; Defined at:
  7428 ;;		line 129 in file "main.c"
  7429 ;; Parameters:    Size  Location     Type
  7430 ;;		None
  7431 ;; Auto vars:     Size  Location     Type
  7432 ;;  i               1    6[BANK0 ] unsigned char 
  7433 ;;  i               1    5[BANK0 ] unsigned char 
  7434 ;; Return value:  Size  Location     Type
  7435 ;;                  1    wreg      void 
  7436 ;; Registers used:
  7437 ;;		wreg, fsr0l, fsr0h, status,2, status,0, btemp+1, pclath, cstack
  7438 ;; Tracked objects:
  7439 ;;		On entry : 0/0
  7440 ;;		On exit  : 0/0
  7441 ;;		Unchanged: 0/0
  7442 ;; Data sizes:     COMMON   BANK0   BANK1   BANK3   BANK2
  7443 ;;      Params:         0       0       0       0       0
  7444 ;;      Locals:         0       2       0       0       0
  7445 ;;      Temps:          0       3       0       0       0
  7446 ;;      Totals:         0       5       0       0       0
  7447 ;;Total ram usage:        5 bytes
  7448 ;; Hardware stack levels used: 1
  7449 ;; Hardware stack levels required when called: 3
  7450 ;; This function calls:
  7451 ;;		_clcd_print
  7452 ;;		_clcd_putch
  7453 ;;		_clear_screen
  7454 ;; This function is called by:
  7455 ;;		_main
  7456 ;; This function uses a non-reentrant model
  7457 ;;
  7458                           
  7459     1746                     _power_on_screen:	
  7460                           ;psect for function _power_on_screen
  7461                           
  7462     1746                     l3342:	
  7463                           ;incstack = 0
  7464                           ; Regs used in _power_on_screen: [wreg-fsr0h+status,2+status,0+btemp+1+pclath+cstack]
  7465                           
  7466                           
  7467                           ;main.c: 132: {
  7468     1746  1283               	bcf	3,5	;RP0=0, select bank0
  7469     1747  1303               	bcf	3,6	;RP1=0, select bank0
  7470     1748  01A5               	clrf	power_on_screen@i
  7471     1749                     l3348:
  7472                           
  7473                           ;main.c: 133: ;main.c: 134:     if(reset_mode == 0x10)
  7474     1749  0825               	movf	power_on_screen@i,w
  7475     174A  3E80               	addlw	128
  7476     174B  00A0               	movwf	clcd_putch@addr
  7477     174C  30FF               	movlw	255
  7478     174D  120A  118A  27E8  160A  118A  	fcall	_clcd_putch
  7479     1752                     l3350:
  7480                           
  7481                           ;main.c: 135:     {
  7482     1752  3001               	movlw	1
  7483     1753  00FF               	movwf	btemp+1
  7484     1754  087F               	movf	btemp+1,w
  7485     1755  1283               	bcf	3,5	;RP0=0, select bank0
  7486     1756  1303               	bcf	3,6	;RP1=0, select bank0
  7487     1757  07A5               	addwf	power_on_screen@i,f
  7488     1758                     l3352:
  7489     1758  3010               	movlw	16
  7490     1759  0225               	subwf	power_on_screen@i,w
  7491     175A  1C03               	skipc
  7492     175B  2F5D               	goto	u4361
  7493     175C  2F5E               	goto	u4360
  7494     175D                     u4361:
  7495     175D  2F49               	goto	l3348
  7496     175E                     u4360:
  7497     175E                     l3354:
  7498                           
  7499                           ;main.c: 136:     clear_screen();
  7500     175E  309C               	movlw	low (STR_24| (0+32768))
  7501     175F  00F6               	movwf	clcd_print@str
  7502     1760  3090               	movlw	high (STR_24| (0+32768))
  7503     1761  00F7               	movwf	clcd_print@str+1
  7504     1762  30C2               	movlw	194
  7505     1763  00F8               	movwf	clcd_print@addr
  7506     1764  160A  118A  2615  160A  118A  	fcall	_clcd_print
  7507                           
  7508                           ;main.c: 137:     program_no = 0;
  7509     1769  3011               	movlw	low (STR_20| (0+32768))
  7510     176A  00F6               	movwf	clcd_print@str
  7511     176B  3090               	movlw	high (STR_20| (0+32768))
  7512     176C  00F7               	movwf	clcd_print@str+1
  7513     176D  3091               	movlw	145
  7514     176E  00F8               	movwf	clcd_print@addr
  7515     176F  160A  118A  2615  160A  118A  	fcall	_clcd_print
  7516     1774                     l3356:
  7517                           
  7518                           ;main.c: 138: 
  7519     1774  1283               	bcf	3,5	;RP0=0, select bank0
  7520     1775  1303               	bcf	3,6	;RP1=0, select bank0
  7521     1776  01A6               	clrf	power_on_screen@i_144
  7522     1777                     l3362:
  7523                           
  7524                           ;main.c: 139:     };main.c: 140: 
  7525     1777  0826               	movf	power_on_screen@i_144,w
  7526     1778  3ED0               	addlw	208
  7527     1779  00A0               	movwf	clcd_putch@addr
  7528     177A  30FF               	movlw	255
  7529     177B  120A  118A  27E8  160A  118A  	fcall	_clcd_putch
  7530     1780                     l3364:
  7531                           
  7532                           ;main.c: 141: 
  7533     1780  3001               	movlw	1
  7534     1781  00FF               	movwf	btemp+1
  7535     1782  087F               	movf	btemp+1,w
  7536     1783  1283               	bcf	3,5	;RP0=0, select bank0
  7537     1784  1303               	bcf	3,6	;RP1=0, select bank0
  7538     1785  07A6               	addwf	power_on_screen@i_144,f
  7539     1786                     l3366:
  7540     1786  3010               	movlw	16
  7541     1787  0226               	subwf	power_on_screen@i_144,w
  7542     1788  1C03               	skipc
  7543     1789  2F8B               	goto	u4371
  7544     178A  2F8C               	goto	u4370
  7545     178B                     u4371:
  7546     178B  2F77               	goto	l3362
  7547     178C                     u4370:
  7548     178C                     l3368:
  7549                           
  7550                           ;main.c: 143:      {
  7551     178C  301A               	movlw	26
  7552     178D  1283               	bcf	3,5	;RP0=0, select bank0
  7553     178E  1303               	bcf	3,6	;RP1=0, select bank0
  7554     178F  00A4               	movwf	??_power_on_screen+2
  7555     1790  305E               	movlw	94
  7556     1791  00A3               	movwf	??_power_on_screen+1
  7557     1792  306D               	movlw	109
  7558     1793  00A2               	movwf	??_power_on_screen
  7559     1794                     u4737:
  7560     1794  0BA2               	decfsz	??_power_on_screen,f
  7561     1795  2F94               	goto	u4737
  7562     1796  0BA3               	decfsz	??_power_on_screen+1,f
  7563     1797  2F94               	goto	u4737
  7564     1798  0BA4               	decfsz	??_power_on_screen+2,f
  7565     1799  2F94               	goto	u4737
  7566     179A  2F9B               	nop2
  7567     179B                     l3370:
  7568                           
  7569                           ;main.c: 145:         clear_screen();
  7570     179B  160A  118A  2528  160A  118A  	fcall	_clear_screen
  7571     17A0                     l106:
  7572     17A0  0008               	return
  7573     17A1                     __end_of_power_on_screen:
  7574                           
  7575                           	psect	text18
  7576     1528                     __ptext18:	
  7577 ;; *************** function _clear_screen *****************
  7578 ;; Defined at:
  7579 ;;		line 65 in file "clcd.c"
  7580 ;; Parameters:    Size  Location     Type
  7581 ;;		None
  7582 ;; Auto vars:     Size  Location     Type
  7583 ;;		None
  7584 ;; Return value:  Size  Location     Type
  7585 ;;                  1    wreg      void 
  7586 ;; Registers used:
  7587 ;;		wreg, status,2, status,0, pclath, cstack
  7588 ;; Tracked objects:
  7589 ;;		On entry : 0/0
  7590 ;;		On exit  : 0/0
  7591 ;;		Unchanged: 0/0
  7592 ;; Data sizes:     COMMON   BANK0   BANK1   BANK3   BANK2
  7593 ;;      Params:         0       0       0       0       0
  7594 ;;      Locals:         0       0       0       0       0
  7595 ;;      Temps:          1       0       0       0       0
  7596 ;;      Totals:         1       0       0       0       0
  7597 ;;Total ram usage:        1 bytes
  7598 ;; Hardware stack levels used: 1
  7599 ;; Hardware stack levels required when called: 2
  7600 ;; This function calls:
  7601 ;;		_clcd_write
  7602 ;; This function is called by:
  7603 ;;		_main
  7604 ;;		_power_on_screen
  7605 ;;		_washing_program_display
  7606 ;;		_water_level_display
  7607 ;;		_run_program
  7608 ;;		_door_status_check
  7609 ;; This function uses a non-reentrant model
  7610 ;;
  7611                           
  7612     1528                     _clear_screen:	
  7613                           ;psect for function _clear_screen
  7614                           
  7615     1528                     l3116:	
  7616                           ;incstack = 0
  7617                           ; Regs used in _clear_screen: [wreg+status,2+status,0+pclath+cstack]
  7618                           
  7619                           
  7620                           ;clcd.c: 67:      clcd_write(0x01, 0);
  7621     1528  01F2               	clrf	clcd_write@mode
  7622     1529  3001               	movlw	1
  7623     152A  160A  118A  2561  160A  118A  	fcall	_clcd_write
  7624     152F                     l3118:
  7625                           
  7626                           ;clcd.c: 68:     _delay((unsigned long)((100)*(20000000/4000000.0)));
  7627     152F  30A6               	movlw	166
  7628     1530  00F6               	movwf	??_clear_screen
  7629     1531                     u4747:
  7630     1531  0BF6               	decfsz	??_clear_screen,f
  7631     1532  2D31               	goto	u4747
  7632     1533  0000               	nop
  7633     1534                     l251:
  7634     1534  0008               	return
  7635     1535                     __end_of_clear_screen:
  7636                           
  7637                           	psect	text19
  7638     07E8                     __ptext19:	
  7639 ;; *************** function _clcd_putch *****************
  7640 ;; Defined at:
  7641 ;;		line 48 in file "clcd.c"
  7642 ;; Parameters:    Size  Location     Type
  7643 ;;  data            1    wreg     const unsigned char 
  7644 ;;  addr            1    0[BANK0 ] unsigned char 
  7645 ;; Auto vars:     Size  Location     Type
  7646 ;;  data            1    1[BANK0 ] const unsigned char 
  7647 ;; Return value:  Size  Location     Type
  7648 ;;                  1    wreg      void 
  7649 ;; Registers used:
  7650 ;;		wreg, status,2, status,0, pclath, cstack
  7651 ;; Tracked objects:
  7652 ;;		On entry : 0/0
  7653 ;;		On exit  : 0/0
  7654 ;;		Unchanged: 0/0
  7655 ;; Data sizes:     COMMON   BANK0   BANK1   BANK3   BANK2
  7656 ;;      Params:         0       1       0       0       0
  7657 ;;      Locals:         0       1       0       0       0
  7658 ;;      Temps:          0       0       0       0       0
  7659 ;;      Totals:         0       2       0       0       0
  7660 ;;Total ram usage:        2 bytes
  7661 ;; Hardware stack levels used: 1
  7662 ;; Hardware stack levels required when called: 2
  7663 ;; This function calls:
  7664 ;;		_clcd_write
  7665 ;; This function is called by:
  7666 ;;		_power_on_screen
  7667 ;;		_washing_program_display
  7668 ;;		_water_level_display
  7669 ;;		_run_program
  7670 ;; This function uses a non-reentrant model
  7671 ;;
  7672                           
  7673     07E8                     _clcd_putch:	
  7674                           ;psect for function _clcd_putch
  7675                           
  7676                           
  7677                           ;incstack = 0
  7678                           ; Regs used in _clcd_putch: [wreg+status,2+status,0+pclath+cstack]
  7679                           ;clcd_putch@data stored from wreg
  7680     07E8  1283               	bcf	3,5	;RP0=0, select bank0
  7681     07E9  1303               	bcf	3,6	;RP1=0, select bank0
  7682     07EA  00A1               	movwf	clcd_putch@data
  7683     07EB                     l3162:
  7684                           
  7685                           ;clcd.c: 48: void clcd_putch(const char data, unsigned char addr);clcd.c: 49: {;clcd.c: 
      +                          50:     clcd_write(addr, 0);
  7686     07EB  01F2               	clrf	clcd_write@mode
  7687     07EC  0820               	movf	clcd_putch@addr,w
  7688     07ED  160A  118A  2561  120A  118A  	fcall	_clcd_write
  7689                           
  7690                           ;clcd.c: 51:     clcd_write(data, 1);
  7691     07F2  01F2               	clrf	clcd_write@mode
  7692     07F3  0AF2               	incf	clcd_write@mode,f
  7693     07F4  1283               	bcf	3,5	;RP0=0, select bank0
  7694     07F5  1303               	bcf	3,6	;RP1=0, select bank0
  7695     07F6  0821               	movf	clcd_putch@data,w
  7696     07F7  160A  118A  2561  120A  118A  	fcall	_clcd_write
  7697     07FC                     l242:
  7698     07FC  0008               	return
  7699     07FD                     __end_of_clcd_putch:
  7700                           
  7701                           	psect	text20
  7702     1615                     __ptext20:	
  7703 ;; *************** function _clcd_print *****************
  7704 ;; Defined at:
  7705 ;;		line 54 in file "clcd.c"
  7706 ;; Parameters:    Size  Location     Type
  7707 ;;  str             2    6[COMMON] PTR const unsigned char 
  7708 ;;		 -> STR_47(17), STR_46(7), STR_45(12), STR_44(13), 
  7709 ;;		 -> STR_43(12), STR_42(15), STR_41(15), STR_40(6), 
  7710 ;;		 -> STR_39(6), STR_38(6), STR_37(6), STR_36(6), 
  7711 ;;		 -> STR_35(6), STR_34(5), STR_33(17), STR_32(7), 
  7712 ;;		 -> STR_31(12), STR_30(8), STR_29(7), STR_28(7), 
  7713 ;;		 -> STR_27(13), STR_26(16), STR_25(16), STR_24(12), 
  7714 ;;		 -> STR_23(10), STR_22(11), STR_21(13), STR_20(16), 
  7715 ;;		 -> STR_19(9), STR_18(14), STR_17(4), STR_16(5), 
  7716 ;;		 -> STR_15(7), STR_14(4), STR_13(5), STR_12(11), 
  7717 ;;		 -> STR_11(10), STR_10(9), STR_9(10), STR_8(10), 
  7718 ;;		 -> STR_7(8), STR_6(11), STR_5(10), STR_4(7), 
  7719 ;;		 -> STR_3(10), STR_2(6), STR_1(6), 
  7720 ;;  addr            1    8[COMMON] unsigned char 
  7721 ;; Auto vars:     Size  Location     Type
  7722 ;;		None
  7723 ;; Return value:  Size  Location     Type
  7724 ;;                  1    wreg      void 
  7725 ;; Registers used:
  7726 ;;		wreg, fsr0l, fsr0h, status,2, status,0, btemp+1, pclath, cstack
  7727 ;; Tracked objects:
  7728 ;;		On entry : 0/0
  7729 ;;		On exit  : 0/0
  7730 ;;		Unchanged: 0/0
  7731 ;; Data sizes:     COMMON   BANK0   BANK1   BANK3   BANK2
  7732 ;;      Params:         3       0       0       0       0
  7733 ;;      Locals:         0       0       0       0       0
  7734 ;;      Temps:          0       0       0       0       0
  7735 ;;      Totals:         3       0       0       0       0
  7736 ;;Total ram usage:        3 bytes
  7737 ;; Hardware stack levels used: 1
  7738 ;; Hardware stack levels required when called: 2
  7739 ;; This function calls:
  7740 ;;		_clcd_write
  7741 ;; This function is called by:
  7742 ;;		_main
  7743 ;;		_power_on_screen
  7744 ;;		_washing_program_display
  7745 ;;		_water_level_display
  7746 ;;		_run_program
  7747 ;;		_door_status_check
  7748 ;; This function uses a non-reentrant model
  7749 ;;
  7750                           
  7751     1615                     _clcd_print:	
  7752                           ;psect for function _clcd_print
  7753                           
  7754     1615                     l3108:	
  7755                           ;incstack = 0
  7756                           ; Regs used in _clcd_print: [wreg-fsr0h+status,2+status,0+btemp+1+pclath+cstack]
  7757                           
  7758                           
  7759                           ;clcd.c: 54: void clcd_print(const char *str, unsigned char addr);clcd.c: 55: {;clcd.c: 
      +                          56:     clcd_write(addr, 0);
  7760     1615  01F2               	clrf	clcd_write@mode
  7761     1616  0878               	movf	clcd_print@addr,w
  7762     1617  160A  118A  2561  160A  118A  	fcall	_clcd_write
  7763                           
  7764                           ;clcd.c: 58:     while (*str != '\0')
  7765     161C  2E33               	goto	l3114
  7766     161D                     l3110:
  7767                           
  7768                           ;clcd.c: 59:     {;clcd.c: 60:         clcd_write(*str, 1);
  7769     161D  01F2               	clrf	clcd_write@mode
  7770     161E  0AF2               	incf	clcd_write@mode,f
  7771     161F  0877               	movf	clcd_print@str+1,w
  7772     1620  00FF               	movwf	btemp+1
  7773     1621  0876               	movf	clcd_print@str,w
  7774     1622  0084               	movwf	4
  7775     1623  160A  118A  217F  160A  118A  	fcall	stringtab
  7776     1628  160A  118A  2561  160A  118A  	fcall	_clcd_write
  7777     162D                     l3112:
  7778                           
  7779                           ;clcd.c: 61:         str++;
  7780     162D  3001               	movlw	1
  7781     162E  07F6               	addwf	clcd_print@str,f
  7782     162F  1803               	skipnc
  7783     1630  0AF7               	incf	clcd_print@str+1,f
  7784     1631  3000               	movlw	0
  7785     1632  07F7               	addwf	clcd_print@str+1,f
  7786     1633                     l3114:
  7787                           
  7788                           ;clcd.c: 58:     while (*str != '\0')
  7789     1633  0877               	movf	clcd_print@str+1,w
  7790     1634  1283               	bcf	3,5	;RP0=0, select bank0
  7791     1635  1303               	bcf	3,6	;RP1=0, select bank0
  7792     1636  00FF               	movwf	btemp+1
  7793     1637  0876               	movf	clcd_print@str,w
  7794     1638  0084               	movwf	4
  7795     1639  160A  118A  217F  160A  118A  	fcall	stringtab
  7796     163E  3A00               	xorlw	0
  7797     163F  1D03               	skipz
  7798     1640  2E42               	goto	u3931
  7799     1641  2E43               	goto	u3930
  7800     1642                     u3931:
  7801     1642  2E1D               	goto	l3110
  7802     1643                     u3930:
  7803     1643                     l248:
  7804     1643  0008               	return
  7805     1644                     __end_of_clcd_print:
  7806                           
  7807                           	psect	text21
  7808     1548                     __ptext21:	
  7809 ;; *************** function _init_config *****************
  7810 ;; Defined at:
  7811 ;;		line 17 in file "main.c"
  7812 ;; Parameters:    Size  Location     Type
  7813 ;;		None
  7814 ;; Auto vars:     Size  Location     Type
  7815 ;;		None
  7816 ;; Return value:  Size  Location     Type
  7817 ;;                  1    wreg      void 
  7818 ;; Registers used:
  7819 ;;		wreg, status,2, status,0, pclath, cstack
  7820 ;; Tracked objects:
  7821 ;;		On entry : 0/0
  7822 ;;		On exit  : 0/0
  7823 ;;		Unchanged: 0/0
  7824 ;; Data sizes:     COMMON   BANK0   BANK1   BANK3   BANK2
  7825 ;;      Params:         0       0       0       0       0
  7826 ;;      Locals:         0       0       0       0       0
  7827 ;;      Temps:          0       0       0       0       0
  7828 ;;      Totals:         0       0       0       0       0
  7829 ;;Total ram usage:        0 bytes
  7830 ;; Hardware stack levels used: 1
  7831 ;; Hardware stack levels required when called: 4
  7832 ;; This function calls:
  7833 ;;		_init_clcd
  7834 ;;		_init_digital_keypad
  7835 ;;		_init_timer2
  7836 ;; This function is called by:
  7837 ;;		_main
  7838 ;; This function uses a non-reentrant model
  7839 ;;
  7840                           
  7841     1548                     _init_config:	
  7842                           ;psect for function _init_config
  7843                           
  7844     1548                     l3330:	
  7845                           ;incstack = 0
  7846                           ; Regs used in _init_config: [wreg+status,2+status,0+pclath+cstack]
  7847                           
  7848                           
  7849                           ;main.c: 20: }
  7850     1548  160A  118A  250A  160A  118A  	fcall	_init_digital_keypad
  7851                           
  7852                           ;main.c: 23: unsigned char operation_mode = 0x01 ;
  7853     154D  160A  118A  2510  160A  118A  	fcall	_init_clcd
  7854     1552                     l3332:
  7855                           
  7856                           ;main.c: 26: unsigned char *washing_prog[] = {"Daily", "Heavy", "Delicates", "Whites", "
      +                          Stainwash", "EcoCottons", "Woolens", "Bedsheets", "Rinse+Dry", "Dry only", "Wash only", 
      +                          "Aqua store"};
  7857     1552  1683               	bsf	3,5	;RP0=1, select bank1
  7858     1553  1303               	bcf	3,6	;RP1=0, select bank1
  7859     1554  1107               	bcf	7,2	;volatile
  7860     1555                     l3334:
  7861                           
  7862                           ;main.c: 29: unsigned char min, sec;
  7863     1555  1087               	bcf	7,1	;volatile
  7864     1556                     l3336:
  7865                           
  7866                           ;main.c: 30: unsigned int rinse_time, wash_time, spin_time;
  7867     1556  1283               	bcf	3,5	;RP0=0, select bank0
  7868     1557  1303               	bcf	3,6	;RP1=0, select bank0
  7869     1558  1087               	bcf	7,1	;volatile
  7870                           
  7871                           ;main.c: 32: {
  7872     1559  160A  118A  251B  160A  118A  	fcall	_init_timer2
  7873     155E                     l3338:
  7874                           
  7875                           ;main.c: 34:     unsigned char key = read_digital_keypad(1);
  7876     155E  170B               	bsf	11,6	;volatile
  7877     155F                     l3340:
  7878                           
  7879                           ;main.c: 35: 
  7880     155F  178B               	bsf	11,7	;volatile
  7881     1560                     l47:
  7882     1560  0008               	return
  7883     1561                     __end_of_init_config:
  7884                           
  7885                           	psect	text22
  7886     151B                     __ptext22:	
  7887 ;; *************** function _init_timer2 *****************
  7888 ;; Defined at:
  7889 ;;		line 4 in file "timers.c"
  7890 ;; Parameters:    Size  Location     Type
  7891 ;;		None
  7892 ;; Auto vars:     Size  Location     Type
  7893 ;;		None
  7894 ;; Return value:  Size  Location     Type
  7895 ;;                  1    wreg      void 
  7896 ;; Registers used:
  7897 ;;		wreg
  7898 ;; Tracked objects:
  7899 ;;		On entry : 0/0
  7900 ;;		On exit  : 0/0
  7901 ;;		Unchanged: 0/0
  7902 ;; Data sizes:     COMMON   BANK0   BANK1   BANK3   BANK2
  7903 ;;      Params:         0       0       0       0       0
  7904 ;;      Locals:         0       0       0       0       0
  7905 ;;      Temps:          0       0       0       0       0
  7906 ;;      Totals:         0       0       0       0       0
  7907 ;;Total ram usage:        0 bytes
  7908 ;; Hardware stack levels used: 1
  7909 ;; Hardware stack levels required when called: 1
  7910 ;; This function calls:
  7911 ;;		Nothing
  7912 ;; This function is called by:
  7913 ;;		_init_config
  7914 ;; This function uses a non-reentrant model
  7915 ;;
  7916                           
  7917     151B                     _init_timer2:	
  7918                           ;psect for function _init_timer2
  7919                           
  7920     151B                     l2240:	
  7921                           ;incstack = 0
  7922                           ; Regs used in _init_timer2: [wreg]
  7923                           
  7924                           
  7925                           ;timers.c: 7:     T2CKPS0 = 1;
  7926     151B  1283               	bcf	3,5	;RP0=0, select bank0
  7927     151C  1303               	bcf	3,6	;RP1=0, select bank0
  7928     151D  1412               	bsf	18,0	;volatile
  7929                           
  7930                           ;timers.c: 8:     T2CKPS1 = 1;
  7931     151E  1492               	bsf	18,1	;volatile
  7932     151F                     l2242:
  7933                           
  7934                           ;timers.c: 11:     PR2 = 250;
  7935     151F  30FA               	movlw	250
  7936     1520  1683               	bsf	3,5	;RP0=1, select bank1
  7937     1521  1303               	bcf	3,6	;RP1=0, select bank1
  7938     1522  0092               	movwf	18	;volatile
  7939     1523                     l2244:
  7940                           
  7941                           ;timers.c: 14:     TMR2IE = 1;
  7942     1523  148C               	bsf	12,1	;volatile
  7943     1524                     l2246:
  7944                           
  7945                           ;timers.c: 17:     TMR2ON = 0;
  7946     1524  1283               	bcf	3,5	;RP0=0, select bank0
  7947     1525  1303               	bcf	3,6	;RP1=0, select bank0
  7948     1526  1112               	bcf	18,2	;volatile
  7949     1527                     l308:
  7950     1527  0008               	return
  7951     1528                     __end_of_init_timer2:
  7952                           
  7953                           	psect	text23
  7954     150A                     __ptext23:	
  7955 ;; *************** function _init_digital_keypad *****************
  7956 ;; Defined at:
  7957 ;;		line 4 in file "digital_keypad.c"
  7958 ;; Parameters:    Size  Location     Type
  7959 ;;		None
  7960 ;; Auto vars:     Size  Location     Type
  7961 ;;		None
  7962 ;; Return value:  Size  Location     Type
  7963 ;;                  1    wreg      void 
  7964 ;; Registers used:
  7965 ;;		wreg, status,2
  7966 ;; Tracked objects:
  7967 ;;		On entry : 0/0
  7968 ;;		On exit  : 0/0
  7969 ;;		Unchanged: 0/0
  7970 ;; Data sizes:     COMMON   BANK0   BANK1   BANK3   BANK2
  7971 ;;      Params:         0       0       0       0       0
  7972 ;;      Locals:         0       0       0       0       0
  7973 ;;      Temps:          0       0       0       0       0
  7974 ;;      Totals:         0       0       0       0       0
  7975 ;;Total ram usage:        0 bytes
  7976 ;; Hardware stack levels used: 1
  7977 ;; Hardware stack levels required when called: 1
  7978 ;; This function calls:
  7979 ;;		Nothing
  7980 ;; This function is called by:
  7981 ;;		_init_config
  7982 ;; This function uses a non-reentrant model
  7983 ;;
  7984                           
  7985     150A                     _init_digital_keypad:	
  7986                           ;psect for function _init_digital_keypad
  7987                           
  7988     150A                     l2230:	
  7989                           ;incstack = 0
  7990                           ; Regs used in _init_digital_keypad: [wreg+status,2]
  7991                           
  7992                           
  7993                           ;digital_keypad.c: 7:     TRISB = TRISB | 0x3F;
  7994     150A  1683               	bsf	3,5	;RP0=1, select bank1
  7995     150B  1303               	bcf	3,6	;RP1=0, select bank1
  7996     150C  0806               	movf	6,w	;volatile
  7997     150D  383F               	iorlw	63
  7998     150E  0086               	movwf	6	;volatile
  7999     150F                     l258:
  8000     150F  0008               	return
  8001     1510                     __end_of_init_digital_keypad:
  8002                           
  8003                           	psect	text24
  8004     1510                     __ptext24:	
  8005 ;; *************** function _init_clcd *****************
  8006 ;; Defined at:
  8007 ;;		line 36 in file "clcd.c"
  8008 ;; Parameters:    Size  Location     Type
  8009 ;;		None
  8010 ;; Auto vars:     Size  Location     Type
  8011 ;;		None
  8012 ;; Return value:  Size  Location     Type
  8013 ;;                  1    wreg      void 
  8014 ;; Registers used:
  8015 ;;		wreg, status,2, status,0, pclath, cstack
  8016 ;; Tracked objects:
  8017 ;;		On entry : 0/0
  8018 ;;		On exit  : 0/0
  8019 ;;		Unchanged: 0/0
  8020 ;; Data sizes:     COMMON   BANK0   BANK1   BANK3   BANK2
  8021 ;;      Params:         0       0       0       0       0
  8022 ;;      Locals:         0       0       0       0       0
  8023 ;;      Temps:          0       0       0       0       0
  8024 ;;      Totals:         0       0       0       0       0
  8025 ;;Total ram usage:        0 bytes
  8026 ;; Hardware stack levels used: 1
  8027 ;; Hardware stack levels required when called: 3
  8028 ;; This function calls:
  8029 ;;		_init_display_controller
  8030 ;; This function is called by:
  8031 ;;		_init_config
  8032 ;; This function uses a non-reentrant model
  8033 ;;
  8034                           
  8035     1510                     _init_clcd:	
  8036                           ;psect for function _init_clcd
  8037                           
  8038     1510                     l3154:	
  8039                           ;incstack = 0
  8040                           ; Regs used in _init_clcd: [wreg+status,2+status,0+pclath+cstack]
  8041                           
  8042                           
  8043                           ;clcd.c: 39:     TRISD = 0x00;
  8044     1510  1683               	bsf	3,5	;RP0=1, select bank1
  8045     1511  1303               	bcf	3,6	;RP1=0, select bank1
  8046     1512  0188               	clrf	8	;volatile
  8047     1513                     l3156:
  8048                           
  8049                           ;clcd.c: 42:     TRISE2 = 0;
  8050     1513  1109               	bcf	9,2	;volatile
  8051     1514                     l3158:
  8052                           
  8053                           ;clcd.c: 43:     TRISE1 = 0;
  8054     1514  1089               	bcf	9,1	;volatile
  8055     1515                     l3160:
  8056                           
  8057                           ;clcd.c: 45:     init_display_controller();
  8058     1515  160A  118A  2644  160A  118A  	fcall	_init_display_controller
  8059     151A                     l239:
  8060     151A  0008               	return
  8061     151B                     __end_of_init_clcd:
  8062                           
  8063                           	psect	text25
  8064     1644                     __ptext25:	
  8065 ;; *************** function _init_display_controller *****************
  8066 ;; Defined at:
  8067 ;;		line 16 in file "clcd.c"
  8068 ;; Parameters:    Size  Location     Type
  8069 ;;		None
  8070 ;; Auto vars:     Size  Location     Type
  8071 ;;		None
  8072 ;; Return value:  Size  Location     Type
  8073 ;;                  1    wreg      void 
  8074 ;; Registers used:
  8075 ;;		wreg, status,2, status,0, pclath, cstack
  8076 ;; Tracked objects:
  8077 ;;		On entry : 0/0
  8078 ;;		On exit  : 0/0
  8079 ;;		Unchanged: 0/0
  8080 ;; Data sizes:     COMMON   BANK0   BANK1   BANK3   BANK2
  8081 ;;      Params:         0       0       0       0       0
  8082 ;;      Locals:         0       0       0       0       0
  8083 ;;      Temps:          2       0       0       0       0
  8084 ;;      Totals:         2       0       0       0       0
  8085 ;;Total ram usage:        2 bytes
  8086 ;; Hardware stack levels used: 1
  8087 ;; Hardware stack levels required when called: 2
  8088 ;; This function calls:
  8089 ;;		_clcd_write
  8090 ;; This function is called by:
  8091 ;;		_init_clcd
  8092 ;; This function uses a non-reentrant model
  8093 ;;
  8094                           
  8095     1644                     _init_display_controller:	
  8096                           ;psect for function _init_display_controller
  8097                           
  8098     1644                     l3120:	
  8099                           ;incstack = 0
  8100                           ; Regs used in _init_display_controller: [wreg+status,2+status,0+pclath+cstack]
  8101                           
  8102                           
  8103                           ;clcd.c: 19:     _delay((unsigned long)((30)*(20000000/4000.0)));
  8104     1644  30C3               	movlw	195
  8105     1645  00F7               	movwf	??_init_display_controller+1
  8106     1646  30CD               	movlw	205
  8107     1647  00F6               	movwf	??_init_display_controller
  8108     1648                     u4757:
  8109     1648  0BF6               	decfsz	??_init_display_controller,f
  8110     1649  2E48               	goto	u4757
  8111     164A  0BF7               	decfsz	??_init_display_controller+1,f
  8112     164B  2E48               	goto	u4757
  8113     164C                     l3122:
  8114                           
  8115                           ;clcd.c: 22:     clcd_write(0x33, 0);
  8116     164C  01F2               	clrf	clcd_write@mode
  8117     164D  3033               	movlw	51
  8118     164E  160A  118A  2561  160A  118A  	fcall	_clcd_write
  8119     1653                     l3124:
  8120                           
  8121                           ;clcd.c: 23:     _delay((unsigned long)((4100)*(20000000/4000000.0)));
  8122     1653  301B               	movlw	27
  8123     1654  00F7               	movwf	??_init_display_controller+1
  8124     1655  309E               	movlw	158
  8125     1656  00F6               	movwf	??_init_display_controller
  8126     1657                     u4767:
  8127     1657  0BF6               	decfsz	??_init_display_controller,f
  8128     1658  2E57               	goto	u4767
  8129     1659  0BF7               	decfsz	??_init_display_controller+1,f
  8130     165A  2E57               	goto	u4767
  8131     165B  0000               	nop
  8132                           
  8133                           ;clcd.c: 24:     clcd_write(0x33, 0);
  8134     165C  01F2               	clrf	clcd_write@mode
  8135     165D  3033               	movlw	51
  8136     165E  160A  118A  2561  160A  118A  	fcall	_clcd_write
  8137     1663                     l3126:
  8138                           
  8139                           ;clcd.c: 25:      _delay((unsigned long)((100)*(20000000/4000000.0)));
  8140     1663  30A6               	movlw	166
  8141     1664  00F6               	movwf	??_init_display_controller
  8142     1665                     u4777:
  8143     1665  0BF6               	decfsz	??_init_display_controller,f
  8144     1666  2E65               	goto	u4777
  8145     1667  0000               	nop
  8146     1668                     l3128:
  8147                           
  8148                           ;clcd.c: 26:     clcd_write(0x33, 0);
  8149     1668  01F2               	clrf	clcd_write@mode
  8150     1669  3033               	movlw	51
  8151     166A  160A  118A  2561  160A  118A  	fcall	_clcd_write
  8152     166F                     l3130:
  8153                           
  8154                           ;clcd.c: 27:     _delay((unsigned long)((1)*(20000000/4000000.0)));
  8155     166F  2E70               	nop2	;2 cycle nop
  8156     1670  2E71               	nop2	;2 cycle nop
  8157     1671  0000               	nop
  8158     1672                     l3132:
  8159                           
  8160                           ;clcd.c: 28:     clcd_write(0x30, 0);
  8161     1672  01F2               	clrf	clcd_write@mode
  8162     1673  3030               	movlw	48
  8163     1674  160A  118A  2561  160A  118A  	fcall	_clcd_write
  8164     1679                     l3134:
  8165                           
  8166                           ;clcd.c: 29:     _delay((unsigned long)((100)*(20000000/4000000.0)));
  8167     1679  30A6               	movlw	166
  8168     167A  00F6               	movwf	??_init_display_controller
  8169     167B                     u4787:
  8170     167B  0BF6               	decfsz	??_init_display_controller,f
  8171     167C  2E7B               	goto	u4787
  8172     167D  0000               	nop
  8173                           
  8174                           ;clcd.c: 30:     clcd_write(0x01, 0);
  8175     167E  01F2               	clrf	clcd_write@mode
  8176     167F  3001               	movlw	1
  8177     1680  160A  118A  2561  160A  118A  	fcall	_clcd_write
  8178     1685                     l3136:
  8179                           
  8180                           ;clcd.c: 31:     _delay((unsigned long)((100)*(20000000/4000000.0)));
  8181     1685  30A6               	movlw	166
  8182     1686  00F6               	movwf	??_init_display_controller
  8183     1687                     u4797:
  8184     1687  0BF6               	decfsz	??_init_display_controller,f
  8185     1688  2E87               	goto	u4797
  8186     1689  0000               	nop
  8187     168A                     l3138:
  8188                           
  8189                           ;clcd.c: 32:     clcd_write(0x0C, 0);
  8190     168A  01F2               	clrf	clcd_write@mode
  8191     168B  300C               	movlw	12
  8192     168C  160A  118A  2561  160A  118A  	fcall	_clcd_write
  8193                           
  8194                           ;clcd.c: 33:     _delay((unsigned long)((100)*(20000000/4000000.0)));
  8195     1691  30A6               	movlw	166
  8196     1692  00F6               	movwf	??_init_display_controller
  8197     1693                     u4807:
  8198     1693  0BF6               	decfsz	??_init_display_controller,f
  8199     1694  2E93               	goto	u4807
  8200     1695  0000               	nop
  8201     1696                     l236:
  8202     1696  0008               	return
  8203     1697                     __end_of_init_display_controller:
  8204                           
  8205                           	psect	text26
  8206     1561                     __ptext26:	
  8207 ;; *************** function _clcd_write *****************
  8208 ;; Defined at:
  8209 ;;		line 4 in file "clcd.c"
  8210 ;; Parameters:    Size  Location     Type
  8211 ;;  byte            1    wreg     unsigned char 
  8212 ;;  mode            1    2[COMMON] unsigned char 
  8213 ;; Auto vars:     Size  Location     Type
  8214 ;;  byte            1    5[COMMON] unsigned char 
  8215 ;; Return value:  Size  Location     Type
  8216 ;;                  1    wreg      void 
  8217 ;; Registers used:
  8218 ;;		wreg
  8219 ;; Tracked objects:
  8220 ;;		On entry : 0/0
  8221 ;;		On exit  : 0/0
  8222 ;;		Unchanged: 0/0
  8223 ;; Data sizes:     COMMON   BANK0   BANK1   BANK3   BANK2
  8224 ;;      Params:         1       0       0       0       0
  8225 ;;      Locals:         1       0       0       0       0
  8226 ;;      Temps:          2       0       0       0       0
  8227 ;;      Totals:         4       0       0       0       0
  8228 ;;Total ram usage:        4 bytes
  8229 ;; Hardware stack levels used: 1
  8230 ;; Hardware stack levels required when called: 1
  8231 ;; This function calls:
  8232 ;;		Nothing
  8233 ;; This function is called by:
  8234 ;;		_init_display_controller
  8235 ;;		_clcd_putch
  8236 ;;		_clcd_print
  8237 ;;		_clear_screen
  8238 ;; This function uses a non-reentrant model
  8239 ;;
  8240                           
  8241     1561                     _clcd_write:	
  8242                           ;psect for function _clcd_write
  8243                           
  8244                           
  8245                           ;incstack = 0
  8246                           ; Regs used in _clcd_write: [wreg]
  8247                           ;clcd_write@byte stored from wreg
  8248     1561  00F5               	movwf	clcd_write@byte
  8249     1562                     l3100:
  8250                           
  8251                           ;clcd.c: 4: static void clcd_write(unsigned char byte, unsigned char mode);clcd.c: 5: {;
      +                          clcd.c: 6:     RE2 = (__bit)mode;
  8252     1562  1872               	btfsc	clcd_write@mode,0
  8253     1563  2D65               	goto	u3911
  8254     1564  2D69               	goto	u3910
  8255     1565                     u3911:
  8256     1565  1283               	bcf	3,5	;RP0=0, select bank0
  8257     1566  1303               	bcf	3,6	;RP1=0, select bank0
  8258     1567  1509               	bsf	9,2	;volatile
  8259     1568  2D6C               	goto	u3924
  8260     1569                     u3910:
  8261     1569  1283               	bcf	3,5	;RP0=0, select bank0
  8262     156A  1303               	bcf	3,6	;RP1=0, select bank0
  8263     156B  1109               	bcf	9,2	;volatile
  8264     156C                     u3924:
  8265     156C                     l3102:
  8266                           
  8267                           ;clcd.c: 7:     PORTD = byte;
  8268     156C  0875               	movf	clcd_write@byte,w
  8269     156D  0088               	movwf	8	;volatile
  8270     156E                     l3104:
  8271                           
  8272                           ;clcd.c: 9:     RE1 = 1;
  8273     156E  1489               	bsf	9,1	;volatile
  8274                           
  8275                           ;clcd.c: 10:     _delay((unsigned long)((100)*(20000000/4000000.0)));
  8276     156F  30A6               	movlw	166
  8277     1570  00F3               	movwf	??_clcd_write
  8278     1571                     u4817:
  8279     1571  0BF3               	decfsz	??_clcd_write,f
  8280     1572  2D71               	goto	u4817
  8281     1573  0000               	nop
  8282     1574                     l3106:
  8283                           
  8284                           ;clcd.c: 11:     RE1 = 0;
  8285     1574  1283               	bcf	3,5	;RP0=0, select bank0
  8286     1575  1303               	bcf	3,6	;RP1=0, select bank0
  8287     1576  1089               	bcf	9,1	;volatile
  8288                           
  8289                           ;clcd.c: 13:     _delay((unsigned long)((4100)*(20000000/4000000.0)));
  8290     1577  301B               	movlw	27
  8291     1578  00F4               	movwf	??_clcd_write+1
  8292     1579  309E               	movlw	158
  8293     157A  00F3               	movwf	??_clcd_write
  8294     157B                     u4827:
  8295     157B  0BF3               	decfsz	??_clcd_write,f
  8296     157C  2D7B               	goto	u4827
  8297     157D  0BF4               	decfsz	??_clcd_write+1,f
  8298     157E  2D7B               	goto	u4827
  8299     157F  0000               	nop
  8300     1580                     l233:
  8301     1580  0008               	return
  8302     1581                     __end_of_clcd_write:
  8303                           
  8304                           	psect	text27
  8305     0801                     __ptext27:	
  8306 ;; *************** function _isr *****************
  8307 ;; Defined at:
  8308 ;;		line 5 in file "isr.c"
  8309 ;; Parameters:    Size  Location     Type
  8310 ;;		None
  8311 ;; Auto vars:     Size  Location     Type
  8312 ;;		None
  8313 ;; Return value:  Size  Location     Type
  8314 ;;                  1    wreg      void 
  8315 ;; Registers used:
  8316 ;;		wreg, status,2, status,0
  8317 ;; Tracked objects:
  8318 ;;		On entry : 0/0
  8319 ;;		On exit  : 0/0
  8320 ;;		Unchanged: 0/0
  8321 ;; Data sizes:     COMMON   BANK0   BANK1   BANK3   BANK2
  8322 ;;      Params:         0       0       0       0       0
  8323 ;;      Locals:         0       0       0       0       0
  8324 ;;      Temps:          2       0       0       0       0
  8325 ;;      Totals:         2       0       0       0       0
  8326 ;;Total ram usage:        2 bytes
  8327 ;; Hardware stack levels used: 1
  8328 ;; This function calls:
  8329 ;;		Nothing
  8330 ;; This function is called by:
  8331 ;;		Interrupt level 1
  8332 ;; This function uses a non-reentrant model
  8333 ;;
  8334                           
  8335     0801                     _isr:	
  8336                           ;psect for function _isr
  8337                           
  8338     0801                     i1l3080:
  8339                           
  8340                           ;isr.c: 7:     static unsigned int count = 0;;isr.c: 9:     if (TMR2IF == 1)
  8341     0801  1283               	bcf	3,5	;RP0=0, select bank0
  8342     0802  1303               	bcf	3,6	;RP1=0, select bank0
  8343     0803  1C8C               	btfss	12,1	;volatile
  8344     0804  2806               	goto	u386_21
  8345     0805  2807               	goto	u386_20
  8346     0806                     u386_21:
  8347     0806  2834               	goto	i1l295
  8348     0807                     u386_20:
  8349     0807                     i1l3082:
  8350                           
  8351                           ;isr.c: 10:     {;isr.c: 11:         if (++count == 1250)
  8352     0807  3001               	movlw	1
  8353     0808  1683               	bsf	3,5	;RP0=1, select bank1
  8354     0809  1303               	bcf	3,6	;RP1=0, select bank1
  8355     080A  07C2               	addwf	isr@count^(0+128),f
  8356     080B  1803               	skipnc
  8357     080C  0AC3               	incf	(isr@count+1)^(0+128),f
  8358     080D  3000               	movlw	0
  8359     080E  07C3               	addwf	(isr@count+1)^(0+128),f
  8360     080F  30E2               	movlw	226
  8361     0810  0642               	xorwf	isr@count^(0+128),w
  8362     0811  3004               	movlw	4
  8363     0812  1903               	skipnz
  8364     0813  0643               	xorwf	(isr@count+1)^(0+128),w
  8365     0814  1D03               	btfss	3,2
  8366     0815  2817               	goto	u387_21
  8367     0816  2818               	goto	u387_20
  8368     0817                     u387_21:
  8369     0817  2832               	goto	i1l3098
  8370     0818                     u387_20:
  8371     0818                     i1l3084:
  8372                           
  8373                           ;isr.c: 12:         {;isr.c: 13:             count = 0;
  8374     0818  01C2               	clrf	isr@count^(0+128)
  8375     0819  01C3               	clrf	(isr@count+1)^(0+128)
  8376     081A                     i1l3086:
  8377                           
  8378                           ;isr.c: 14:             if(sec > 0)
  8379     081A  1283               	bcf	3,5	;RP0=0, select bank0
  8380     081B  1303               	bcf	3,6	;RP1=0, select bank0
  8381     081C  086A               	movf	_sec,w
  8382     081D  1903               	btfsc	3,2
  8383     081E  2820               	goto	u388_21
  8384     081F  2821               	goto	u388_20
  8385     0820                     u388_21:
  8386     0820  2824               	goto	i1l3090
  8387     0821                     u388_20:
  8388     0821                     i1l3088:
  8389                           
  8390                           ;isr.c: 15:             {;isr.c: 16:                 sec--;
  8391     0821  3001               	movlw	1
  8392     0822  02EA               	subwf	_sec,f
  8393                           
  8394                           ;isr.c: 17:             }
  8395     0823  2832               	goto	i1l3098
  8396     0824                     i1l3090:
  8397     0824  086A               	movf	_sec,w
  8398     0825  1D03               	btfss	3,2
  8399     0826  2828               	goto	u389_21
  8400     0827  2829               	goto	u389_20
  8401     0828                     u389_21:
  8402     0828  2832               	goto	i1l3098
  8403     0829                     u389_20:
  8404     0829                     i1l3092:
  8405     0829  086B               	movf	_min,w
  8406     082A  1903               	btfsc	3,2
  8407     082B  282D               	goto	u390_21
  8408     082C  282E               	goto	u390_20
  8409     082D                     u390_21:
  8410     082D  2832               	goto	i1l3098
  8411     082E                     u390_20:
  8412     082E                     i1l3094:
  8413                           
  8414                           ;isr.c: 19:             {;isr.c: 20:                 min--;
  8415     082E  3001               	movlw	1
  8416     082F  02EB               	subwf	_min,f
  8417     0830                     i1l3096:
  8418                           
  8419                           ;isr.c: 21:                 sec = 59;
  8420     0830  303B               	movlw	59
  8421     0831  00EA               	movwf	_sec
  8422     0832                     i1l3098:
  8423                           
  8424                           ;isr.c: 27:         TMR2IF = 0;
  8425     0832  1283               	bcf	3,5	;RP0=0, select bank0
  8426     0833  108C               	bcf	12,1	;volatile
  8427     0834                     i1l295:
  8428     0834  0871               	movf	??_isr+1,w
  8429     0835  008A               	movwf	10
  8430     0836  0E70               	swapf	??_isr,w
  8431     0837  0083               	movwf	3
  8432     0838  0EFE               	swapf	btemp,f
  8433     0839  0E7E               	swapf	btemp,w
  8434     083A  0009               	retfie
  8435     083B                     __end_of_isr:
  8436     007E                     btemp	set	126	;btemp
  8437     007E                     wtemp0	set	126
  8438                           
  8439                           	psect	intentry
  8440     0004                     __pintentry:	
  8441                           ;incstack = 0
  8442                           ; Regs used in _isr: [wreg+status,2+status,0]
  8443                           
  8444     0004                     interrupt_function:
  8445     007E                     saved_w	set	btemp
  8446     0004  00FE               	movwf	btemp
  8447     0005  0E03               	swapf	3,w
  8448     0006  00F0               	movwf	??_isr
  8449     0007  080A               	movf	10,w
  8450     0008  00F1               	movwf	??_isr+1
  8451     0009  120A  158A  2801   	ljmp	_isr
  8452                           
  8453                           	psect	config
  8454                           
  8455                           ;Config register CONFIG @ 0x2007
  8456                           ;	Oscillator Selection bits
  8457                           ;	FOSC = 0x3, unprogrammed default
  8458                           ;	Watchdog Timer Enable bit
  8459                           ;	WDTE = OFF, WDT disabled
  8460                           ;	Power-up Timer Enable bit
  8461                           ;	PWRTE = 0x1, unprogrammed default
  8462                           ;	Brown-out Reset Enable bit
  8463                           ;	BOREN = 0x1, unprogrammed default
  8464                           ;	Low-Voltage (Single-Supply) In-Circuit Serial Programming Enable bit
  8465                           ;	LVP = 0x1, unprogrammed default
  8466                           ;	Data EEPROM Memory Code Protection bit
  8467                           ;	CPD = 0x1, unprogrammed default
  8468                           ;	Flash Program Memory Write Enable bits
  8469                           ;	WRT = 0x3, unprogrammed default
  8470                           ;	In-Circuit Debugger Mode bit
  8471                           ;	DEBUG = 0x1, unprogrammed default
  8472                           ;	Flash Program Memory Code Protection bit
  8473                           ;	CP = 0x1, unprogrammed default
  8474     2007                     	org	8199
  8475     2007  3FFB               	dw	16379

Data Sizes:
    Strings     383
    Constant    0
    Data        37
    BSS         18
    Persistent  0
    Stack       0

Auto Spaces:
    Space          Size  Autos    Used
    COMMON           14     10      12
    BANK0            80     64      79
    BANK1            80      0      38
    BANK3            96      0       0
    BANK2            96      0       0

Pointer List with Targets:

    clcd_print@str	PTR const unsigned char  size(2) Largest target is 17
		 -> STR_1(CODE[6]), STR_10(CODE[9]), STR_11(CODE[10]), STR_12(CODE[11]), 
		 -> STR_13(CODE[5]), STR_14(CODE[4]), STR_15(CODE[7]), STR_16(CODE[5]), 
		 -> STR_17(CODE[4]), STR_18(CODE[14]), STR_19(CODE[9]), STR_2(CODE[6]), 
		 -> STR_20(CODE[16]), STR_21(CODE[13]), STR_22(CODE[11]), STR_23(CODE[10]), 
		 -> STR_24(CODE[12]), STR_25(CODE[16]), STR_26(CODE[16]), STR_27(CODE[13]), 
		 -> STR_28(CODE[7]), STR_29(CODE[7]), STR_3(CODE[10]), STR_30(CODE[8]), 
		 -> STR_31(CODE[12]), STR_32(CODE[7]), STR_33(CODE[17]), STR_34(CODE[5]), 
		 -> STR_35(CODE[6]), STR_36(CODE[6]), STR_37(CODE[6]), STR_38(CODE[6]), 
		 -> STR_39(CODE[6]), STR_4(CODE[7]), STR_40(CODE[6]), STR_41(CODE[15]), 
		 -> STR_42(CODE[15]), STR_43(CODE[12]), STR_44(CODE[13]), STR_45(CODE[12]), 
		 -> STR_46(CODE[7]), STR_47(CODE[17]), STR_5(CODE[10]), STR_6(CODE[11]), 
		 -> STR_7(CODE[8]), STR_8(CODE[10]), STR_9(CODE[10]), 

    washing_prog	PTR unsigned char [12] size(2) Largest target is 11
		 -> STR_1(CODE[6]), STR_10(CODE[9]), STR_11(CODE[10]), STR_12(CODE[11]), 
		 -> STR_2(CODE[6]), STR_3(CODE[10]), STR_4(CODE[7]), STR_5(CODE[10]), 
		 -> STR_6(CODE[11]), STR_7(CODE[8]), STR_8(CODE[10]), STR_9(CODE[10]), 

    water_level_option	PTR unsigned char [5] size(2) Largest target is 7
		 -> STR_13(CODE[5]), STR_14(CODE[4]), STR_15(CODE[7]), STR_16(CODE[5]), 
		 -> STR_17(CODE[4]), 


Critical Paths under _main in COMMON

    _run_program->___awdiv
    _run_program->___xxtofl
    _door_status_check->_clcd_print
    ___fltol->___xxtofl
    ___flsub->___fladd
    ___flsub->___xxtofl
    ___flmul->___xxtofl
    ___flge->___xxtofl
    _clear_screen->_clcd_write
    _clcd_putch->___awdiv
    _clcd_print->_clcd_write
    _init_clcd->_init_display_controller
    _init_display_controller->_clcd_write

Critical Paths under _isr in COMMON

    None.

Critical Paths under _main in BANK0

    _main->_run_program
    _water_level_display->_clcd_putch
    _washing_program_display->_clcd_putch
    _run_program->___flge
    ___fltol->___flmul
    ___flsub->___flmul
    ___flmul->___xxtofl
    ___flge->___flsub
    _power_on_screen->_clcd_putch

Critical Paths under _isr in BANK0

    None.

Critical Paths under _main in BANK1

    None.

Critical Paths under _isr in BANK1

    None.

Critical Paths under _main in BANK3

    None.

Critical Paths under _isr in BANK3

    None.

Critical Paths under _main in BANK2

    None.

Critical Paths under _isr in BANK2

    None.

Call Graph Tables:

 ---------------------------------------------------------------------------------
 (Depth) Function   	        Calls       Base Space   Used Autos Params    Refs
 ---------------------------------------------------------------------------------
 (0) _main                                                 5     5      0   88274
                                             59 BANK0      5     5      0
                         _clcd_print
                       _clear_screen
                        _init_config
                    _power_on_screen
                _read_digital_keypad
                        _run_program
                           _set_time
            _washing_program_display
                _water_level_display
 ---------------------------------------------------------------------------------
 (1) _water_level_display                                  3     3      0   13425
                                              2 BANK0      3     3      0
                         _clcd_print
                         _clcd_putch
                       _clear_screen
 ---------------------------------------------------------------------------------
 (1) _washing_program_display                              3     3      0   13425
                                              2 BANK0      3     3      0
                         _clcd_print
                         _clcd_putch
                       _clear_screen
 ---------------------------------------------------------------------------------
 (1) _set_time                                             0     0      0       0
 ---------------------------------------------------------------------------------
 (1) _run_program                                          7     7      0   35416
                                             52 BANK0      7     7      0
                            ___awdiv
                            ___awmod
                             ___flge
                            ___flmul
                            ___flsub
                            ___fltol
                             ___wmul
                           ___xxtofl
                         _clcd_print
                         _clcd_putch
                       _clear_screen
                  _door_status_check
 ---------------------------------------------------------------------------------
 (2) _door_status_check                                    0     0      0   11020
                         _clcd_print
                       _clear_screen
 ---------------------------------------------------------------------------------
 (2) ___xxtofl                                            14    10      4     702
                                              2 COMMON     8     4      4
                                              0 BANK0      6     6      0
 ---------------------------------------------------------------------------------
 (2) ___wmul                                               6     2      4    1696
                                              2 COMMON     6     2      4
 ---------------------------------------------------------------------------------
 (2) ___fltol                                             10     6      4     381
                                             32 BANK0     10     6      4
                            ___flmul (ARG)
                           ___xxtofl (ARG)
 ---------------------------------------------------------------------------------
 (2) ___flsub                                              8     0      8    2333
                                             32 BANK0      8     0      8
                            ___fladd
                            ___flmul (ARG)
                           ___xxtofl (ARG)
 ---------------------------------------------------------------------------------
 (3) ___fladd                                             20    12      8    2136
                                              2 COMMON     8     0      8
                                              0 BANK0     12    12      0
 ---------------------------------------------------------------------------------
 (2) ___flmul                                             26    18      8    3713
                                              6 BANK0     26    18      8
                          __Umul8_16
                           ___xxtofl (ARG)
 ---------------------------------------------------------------------------------
 (3) __Umul8_16                                            9     7      2     980
                                              2 COMMON     4     2      2
                                              0 BANK0      5     5      0
 ---------------------------------------------------------------------------------
 (2) ___flge                                              12     4      8     334
                                             40 BANK0     12     4      8
                            ___flmul (ARG)
                            ___flsub (ARG)
                           ___xxtofl (ARG)
 ---------------------------------------------------------------------------------
 (2) ___awmod                                              6     2      4     904
                                              2 COMMON     6     2      4
 ---------------------------------------------------------------------------------
 (2) ___awdiv                                              8     4      4     908
                                              2 COMMON     8     4      4
 ---------------------------------------------------------------------------------
 (1) _read_digital_keypad                                  2     2      0      22
                                              2 COMMON     2     2      0
 ---------------------------------------------------------------------------------
 (1) _power_on_screen                                      5     5      0   13592
                                              2 BANK0      5     5      0
                         _clcd_print
                         _clcd_putch
                       _clear_screen
 ---------------------------------------------------------------------------------
 (2) _clear_screen                                         1     1      0    1052
                                              6 COMMON     1     1      0
                         _clcd_write
 ---------------------------------------------------------------------------------
 (2) _clcd_putch                                           2     1      1    2374
                                              0 BANK0      2     1      1
                            ___awdiv (ARG)
                            ___awmod (ARG)
                         _clcd_write
 ---------------------------------------------------------------------------------
 (2) _clcd_print                                           3     0      3    9968
                                              6 COMMON     3     0      3
                         _clcd_write
 ---------------------------------------------------------------------------------
 (1) _init_config                                          0     0      0    1052
                          _init_clcd
                _init_digital_keypad
                        _init_timer2
 ---------------------------------------------------------------------------------
 (2) _init_timer2                                          0     0      0       0
 ---------------------------------------------------------------------------------
 (2) _init_digital_keypad                                  0     0      0       0
 ---------------------------------------------------------------------------------
 (2) _init_clcd                                            0     0      0    1052
            _init_display_controller
 ---------------------------------------------------------------------------------
 (3) _init_display_controller                              2     2      0    1052
                                              6 COMMON     2     2      0
                         _clcd_write
 ---------------------------------------------------------------------------------
 (3) _clcd_write                                           4     3      1    1052
                                              2 COMMON     4     3      1
 ---------------------------------------------------------------------------------
 Estimated maximum stack depth 3
 ---------------------------------------------------------------------------------
 (Depth) Function   	        Calls       Base Space   Used Autos Params    Refs
 ---------------------------------------------------------------------------------
 (5) _isr                                                  2     2      0       0
                                              0 COMMON     2     2      0
 ---------------------------------------------------------------------------------
 Estimated maximum stack depth 5
 ---------------------------------------------------------------------------------

 Call Graph Graphs:

 _main (ROOT)
   _clcd_print
     _clcd_write
   _clear_screen
     _clcd_write
   _init_config
     _init_clcd
       _init_display_controller
         _clcd_write
     _init_digital_keypad
     _init_timer2
   _power_on_screen
     _clcd_print
     _clcd_putch
       ___awdiv (ARG)
       ___awmod (ARG)
       _clcd_write (ARG)
     _clear_screen
   _read_digital_keypad
   _run_program
     ___awdiv
     ___awmod
     ___flge
       ___flmul (ARG)
         __Umul8_16
         ___xxtofl (ARG)
       ___flsub (ARG)
         ___fladd
         ___flmul (ARG)
         ___xxtofl (ARG)
       ___xxtofl (ARG)
     ___flmul
     ___flsub
     ___fltol
       ___flmul (ARG)
       ___xxtofl (ARG)
     ___wmul
     ___xxtofl
     _clcd_print
     _clcd_putch
     _clear_screen
     _door_status_check
       _clcd_print
       _clear_screen
   _set_time
   _washing_program_display
     _clcd_print
     _clcd_putch
     _clear_screen
   _water_level_display
     _clcd_print
     _clcd_putch
     _clear_screen

 _isr (ROOT)

 Address spaces:
Name               Size   Autos  Total    Cost      Usage
BANK3               60      0       0       9        0.0%
BITBANK3            60      0       0       8        0.0%
SFR3                 0      0       0       4        0.0%
BITSFR3              0      0       0       4        0.0%
BANK2               60      0       0      11        0.0%
BITBANK2            60      0       0      10        0.0%
SFR2                 0      0       0       5        0.0%
BITSFR2              0      0       0       5        0.0%
BANK1               50      0      26       7       47.5%
BITBANK1            50      0       0       6        0.0%
SFR1                 0      0       0       2        0.0%
BITSFR1              0      0       0       2        0.0%
BANK0               50     40      4F       5       98.8%
BITBANK0            50      0       0       4        0.0%
SFR0                 0      0       0       1        0.0%
BITSFR0              0      0       0       1        0.0%
COMMON               E      A       C       1       85.7%
BITCOMMON            E      0       0       0        0.0%
CODE                 0      0       0       0        0.0%
DATA                 0      0      81      12        0.0%
ABS                  0      0      81       3        0.0%
NULL                 0      0       0       0        0.0%
STACK                0      0       0       2        0.0%
EEDATA             100      0       0       0        0.0%


Microchip Technology PIC Macro Assembler V2.46 build 20240104201356 
Symbol Table                                                                                   Sun Mar 31 00:43:18 2024

                              pc 0002                   clcd_print@addr 0078                               l47 1560  
                   ___awdiv@sign 0077                               fsr 0004              ___wmul@multiplicand 0074  
         water_level_display@key 0024              __Umul8_16@word_mpld 0022                              l106 17A0  
                            l213 16BB                              l117 0BA7                              l216 16EC  
                            l128 0C9D                              l233 1580                              l209 03E8  
                            l242 07FC                              l251 1534                              l236 1696  
                            l308 1527                              l239 151A                              l175 0A55  
                            l248 1643                              l273 17FE                              l258 150F  
                            l187 0AB1                              l268 17FF                              l701 0E5F  
                            l560 1745                              l720 0F73                              l810 1602  
                            l394 15D3                              l547 08A1                              l580 09BD  
                            l572 0938                              l812 1614                              l716 0F4F  
                            l708 0FFF                              l396 15EB                              l741 15C6  
                            l726 0F95                              l575 09A4                              l738 0FFF  
                            l595 0904                              l835 0752                              l588 0919  
                            l837 07E7                              l598 0919                              l791 072D  
                            l695 0E03                              l848 07B1                              l849 07BD  
                            l699 0E86                              l797 069D                              _GIE 005F  
                            _RB0 0030                              _RC1 0039                              _RC2 003A  
                            _RE1 0049                              _RE2 004A                              _PR2 0092  
                            _min 006B                              _sec 006A                              _isr 0801  
                 clcd_putch@addr 0020                              fsr0 0004                   clcd_putch@data 0021  
                            indf 0000                     ___awmod@sign 0077     read_digital_keypad@longpress 0069  
                   ___flmul@aexp 0034                     ___flmul@bexp 0039                     ___flmul@sign 0033  
                   ___flmul@temp 003E                     ___flmul@prod 003A                      _run_program 0044  
                   ___fltol@exp1 0049                             l2100 0E63                             l2020 0DB1  
                           l2110 0E7A                             l2102 0E6A                             l2030 0DC8  
                           l2022 0DB5                             l2200 0FE5                             l2120 0E98  
                           l2104 0E6C                             l2112 0E7E                             l2040 0DDC  
                           l2032 0DC9                             l2024 0DB6                             l2016 0DA8  
                           l2210 0FF5                             l2202 0FEA                             l2130 0EC0  
                           l2122 0EAF                             l2114 0E8A                             l2106 0E70  
                           l2050 0DEB                             l2042 0DDD                             l2026 0DBB  
                           l2034 0DCB                             l2018 0DAD                             l3100 1562  
                           l2300 0850                             l2212 0FFA                             l2204 0FEB  
                           l2140 0EE9                             l2132 0EC4                             l2124 0EB3  
                           l2116 0E8F                             l2108 0E71                             l2060 0E09  
                           l2052 0DF0                             l2044 0DE1                             l2036 0DD3  
                           l2028 0DC0                             l3102 156C                             l2230 150A  
                           l3110 161D                             l2310 0866                             l2302 0854  
                           l2214 0FFE                             l2206 0FEF                             l2142 0F27  
                           l2150 0F41                             l2134 0EC5                             l2126 0EB7  
                           l2070 0E17                             l2062 0E0D                             l2054 0DF8  
                           l2046 0DE5                             l2038 0DD6                             l3104 156E  
                           l3120 1644                             l2240 151B                             l3112 162D  
                           l2320 0886                             l2312 086A                             l2304 0856  
                           l3200 0401                             l2208 0FF1                             l2160 0F6E  
                           l2152 0F57                             l2144 0F2B                             l2136 0ECE  
                           l2128 0EBE                             l2080 0E21                             l2072 0E19  
                           l2064 0E11                             l2056 0DF9                             l2048 0DE6  
                           l2400 08CA            ??_read_digital_keypad 0072                             l3106 1574  
                           l3130 166F                             l3122 164C                             l2242 151F  
                           l3114 1633                             l2322 088D                             l2314 086E  
                           l2306 085C                             l3210 041C                             l3202 0409  
                           l2170 0F81                             l2162 0F72                             l2154 0F5C  
                           l2146 0F2D                             l2138 0ED3                             l2090 0E2B  
                           l2082 0E23                             l2074 0E1B                             l2066 0E13  
                           l2058 0DFB                             l2402 08D2                             l3132 1672  
                           l3124 1653                             l2244 1523                             l3108 1615  
                           l3116 1528                             l2316 087F                             l2308 085F  
                           l2324 0893                             l2340 16F9                             l2332 16ED  
                           l3140 15EF                             l3300 06B5                             l3220 0433  
                           l3212 0420                             l3204 040B                             l2180 0F92  
                           l2164 0F77                             l2172 0F83                             l2148 0F32  
                           l2092 0E2D                             l2084 0E25                             l2076 0E1D  
                           l2068 0E15                             l2412 08E0                             l2404 08D4  
                           l3134 1679                             l3126 1663                             l2246 1524  
                           l3118 152F                             l2326 0898                             l2318 0885  
                           l2350 1712                             l2342 16FD                             l2334 16EE  
                           l3150 1610                             l3142 15F1                             l3310 06F0  
                           l3302 06B9                             l3222 0435                             l3214 0421  
                           l3206 0413                             l2190 0FB1                             l2166 0F7A  
                           l2158 0F65                             l2174 0F87                             l2086 0E27  
                           l2078 0E1F                             l2094 0E2F                             l2430 15A7  
                           l2422 08F9                             l2414 08E9                             l2406 08D8  
                           l3136 1685                             l3128 1668                             l3160 1515  
                           l2328 089D                             l2360 1731                             l2352 1716  
                           l2344 1702                             l2336 16F2                             l3144 15F8  
                           l3320 071B                             l3312 06FF                             l3304 06D2  
                           l3240 04A2                             l3232 0450                             l3224 043D  
                           l3216 0426                             l3208 0418                             l2192 0FCF  
                           l2184 0F9A                             l2176 0F88                             l2168 0F7C  
                           l2096 0E30                             l2088 0E29                             l2424 0909  
                           l2416 08F2                             l2280 15DA                             l2600 078C  
                           l3400 0B72                             l3138 168A                             l3154 1510  
                           l3330 1548                             l3162 07EB                             l2290 083C  
                           l2354 171A                             l2346 1708                             l2362 1737  
                           l2338 16F7                             l2370 091A                             l3146 15FC  
                           l3322 071C                             l3314 0709                             l3306 06D8  
                           l3250 051B                             l3242 04CC                             l3234 045E  
                           l3226 0442                             l3218 042B                             l2186 0F9F  
                           l2194 0FD3                             l2178 0F8C                             l2098 0E47  
                           l2426 090E                             l2282 15E1                             l2274 15C7  
                           l2610 07B5                             l2602 0795                             l3170 16A5  
                           l3402 0B78                             l3410 0BB7                             l3156 1513  
                           l3340 155F                             l3332 1552                             l2292 0840  
                           l2364 173C                             l2356 1724                             l2348 170B  
                           l2380 097C                             l2372 0930                             l3148 160B  
                           l3316 070B                             l3324 0721                             l3308 06E5  
                           l3260 0597                             l3252 0538                             l3244 04E8  
                           l3236 046B                             l3228 0447                             l2196 0FD8  
                           l2188 0FAD                             l2428 15A3                             l2284 15E7  
                           l2276 15C9                             l2620 07DF                             l2612 07BF  
                           l2604 079C                             l3180 16DC                             l3172 16B0  
                           l3164 1697                             l3500 0279                             l3412 0BBF  
                           l3420 0BCF                             l3404 0BAB                             l3158 1514  
                           l3334 1555                             l3350 1752                             l3342 1746  
                           l2294 0845                             l2366 1741                             l2358 172A  
                           l2382 0980                             l2374 094C                             l3326 0725  
                           l3318 0717                             l3270 0649                             l3262 05C2  
                           l3254 0546                             l3246 0504                             l3238 0486  
                           l3190 03EE                             l2198 0FDD                             l2390 08A2  
                           l2278 15CD                             l2614 07D5                             l2606 07A7  
                           l3182 16E7                             l3174 16C1                             l3166 169D  
                           l3510 0317                             l3502 027F                             l3430 0C30  
                           l3422 0BDA                             l3414 0BC3                             l3406 0BB1  
                           l3336 1556                             l3352 1758                             l2296 0847  
                           l2288 083B                             l2384 09BA                             l2376 0954  
                           l3280 066E                             l3272 0652                             l3264 05D0  
                           l3256 0563                             l3248 050D                             l3192 03F2  
                           l2392 08AD                             l2616 07DA                             l2608 07AB  
                           l3184 16EA                             l3176 16C6                             l3168 16A0  
                           l3520 036E                             l3512 0323                             l3504 02F9  
                           l3440 0054                             l2720 09C3                             l3432 0C68  
                           l3424 0BE4                             l3416 0BC9                             l3408 0BB2  
                           l3600 0D6F                             l3338 155E                             l3370 179B  
                           l3362 1777                             l3354 175E                             l2650 17BE  
                           l2298 084B                             l2386 09BC                             l2378 0958  
                           l3290 0686                             l3282 0677                             l3274 0660  
                           l3266 05FB                             l3258 057A                             l3194 03F6  
                           l2618 07DE                             l3186 16EB                             l3178 16D1  
                           l3530 03B3                             l3522 0389                             l3506 0305  
                           l3514 032E                             l3450 009F                             l3442 0059  
                           l2810 0A70                             l2722 09C5                             l3434 0C6E  
                           l3426 0BEA                             l3418 0BCA                             l3610 0D87  
                           l3602 0D76                             l3364 1780                             l3356 1774  
                           l3348 1749                             l2660 17D9                             l2652 17C2  
                           l2644 17AC                             l2636 17A2                             l3292 069A  
                           l3276 0669                             l3284 067D                             l3268 0621  
                           l3196 03F7                             l3188 03E9                             l2396 08B6  
                           l2580 073A                             l3540 03DF                             l3532 03B8  
                           l3524 03A4                             l3516 0349                             l3508 0311  
                           l3460 0113                             l3452 00BA                             l3444 0064  
                           l3436 0047                             l2804 0A5A                             l2732 09CF  
                           l2716 09BE                             l3380 0AC9                             l3372 0AB5  
                           l3428 0C2A                             l3612 0D89                             l3604 0D7C  
                           l3620 0DA1                             l3366 1786                             l2662 17DF  
                           l2670 17E6                             l2654 17C7                             l2646 17B7  
                           l2638 17A7                             l3286 0681                             l3278 066D  
                           l3198 03FC                             l2398 08C9                             l2590 0766  
                           l2582 074A                             l3542 03E1                             l3534 03C3  
                           l3526 03AB                             l3518 0364                             l3470 0159  
                           l3462 0118                             l3454 00C4                             l3446 0079  
                           l3438 004C                             l2814 0A75                             l2806 0A6B  
                           l2750 0A00                             l2742 09EA                             l2734 09E0  
                           l2726 09CA                             l2718 09BF                             l3390 0AE4  
                           l3382 0ACD                             l3374 0ABB                             l3614 0D8C  
                           l3550 0CB4                             l3368 178C                             l2672 17EF  
                           l2664 17E3                             l2656 17CE                             l2648 17BC  
                           l3296 06A2                             l3288 0682                             l2592 076A  
                           l2584 075A                             l2576 0731                             l3536 03CE  
                           l3528 03B0                             l3472 0194                             l3464 0123  
                           l3456 00DF                             l3448 0084                             l3480 01F0  
                           l2824 0A7A                             l2760 0A0A                             l3392 0AEE  
                           l3384 0AD2                             l3376 0AC0                             l3608 0D81  
                           l3560 0CEA                             l3552 0CBF                             l3544 0C9E  
                           l2674 17F4                             l2658 17D4                             l2682 17FE  
                           l3298 06A7                             l2594 0773                             l2578 0736  
                           l3538 03DC                             l3490 021A                             l3482 01F6  
                           l3474 01CF                             l3466 012E                             l3458 0105  
                           l2770 0A27                             l2762 0A1B                             l2754 0A05  
                           l2738 09E5                             l3394 0AF4                             l3386 0AD8  
                           l3378 0AC1                             l3618 0D93                             l3570 0D10  
                           l3562 0CEF                             l3554 0CCB                             l3546 0CA3  
                           l2676 17F6                             l2596 077A                             l2588 0763  
                           l3492 022C                             l3484 01F8                             l3476 01EC  
                           l3468 0139                             l2764 0A1F                             l2748 09EF  
                           l2828 0A8B                             l3396 0B34                             l3388 0AD9  
                           l3580 0D2B                             l3572 0D15                             l3564 0CF8  
                           l3556 0CD1                             l3548 0CA9                             l2678 17FC  
                           l2598 077E                             l3494 0238                             l3486 01FA  
                           l3478 01EF                             l2782 0A36                             l2774 0A2C  
                           l2766 0A22                             l3398 0B3A                             l3582 0D2F  
                           l3590 0D55                             l3574 0D1A                             l3566 0CFC  
                           l3558 0CDF                             l3496 0261                             l3488 0214  
                           l2792 0A3F                             l3592 0D5D                             l3584 0D34  
                           l3576 0D20                             l3568 0D0A                             l3498 026D  
                           l2794 0A50                             l2786 0A3B                             l2778 0A31  
                           l3594 0D63                             l3586 0D3F                             l3578 0D26  
                           l3596 0D65                             l3588 0D4A                             l2798 0A55  
                           l3598 0D68                             ?_isr 0070                             STR_1 115C  
                           STR_2 1162                             STR_3 10DD                             STR_4 1143  
                           STR_5 10D3                             STR_6 10BE                             STR_7 111F  
                           STR_8 10E7                             STR_9 10FB                             u2000 0DBB  
                           u2001 0DBA                             u2010 0DC0                             u2011 0DBF  
                           u2100 0E51                             u2020 0DDC                             u2021 0DDB  
                           u2110 0E63                             u2030 0DE5                             u2111 0E62  
                           u2031 0DE4                             u2200 0EC4                             u2120 0E70  
                           u2040 0DEB                             u2201 0EC3                             u2121 0E6F  
                           u2041 0DEA                             u2050 0DF0                             u2051 0DEF  
                           u2300 0F77                             u2220 0EE9                             u2140 0E86  
                           u2060 0E09                             u2301 0F76                             u2221 0EE8  
                           u2141 0E85                             u2061 0E08                             u2310 0F81  
                           u2150 0E8A                             u2070 0E0D                             u2311 0F80  
                           u2231 0F00                             u2223 0EE5                             u2215 0EC7  
                           u2151 0E89                             u2135 0E73                             u2071 0E0C  
                           u4000 03FC                             u2400 0FD8                             u2320 0F87  
                           u2240 0F14                             u2232 0F01                             u2160 0E8F  
                           u2080 0E47                             u4001 03FB                             u2401 0FD7  
                           u2321 0F86                             u2241 0F15                             u2233 0F06  
                           u2161 0E8E                             u2081 0E46                             u4010 0401  
                           u2410 0FDD                             u2330 0F8C                             u2250 0F32  
                           u2242 0F1A                             u2234 0F07                             u2090 0E50  
                           u4011 0400                             u2411 0FDC                             u2331 0F8B  
                           u2251 0F31                             u2243 0F1B                             u2235 0F0C  
                           u2171 0EA1                             u2091 0E4E                             u4020 0420  
                           u2420 0FEA                             u2340 0F92                             u2260 0F57  
                           u2236 0F0D                             u2180 0EB3                             u2172 0EA8  
                           u2500 15CD                             u4101 04F6                             u4021 041F  
                           u2421 0FE9                             u2341 0F91                             u2261 0F56  
                           u2181 0EB2                             u2173 0EAF                             u2085 0E43  
                           u2501 15CC                             u4102 04FD                             u4030 0426  
                           u2430 0FEF                             u2350 0F99                             u2270 0F5C  
                           u2190 0EB7                             u3310 0779                             u4103 0504  
                           u4031 0425                             u2431 0FEE                             u2351 0F98  
                           u2271 0F5B                             u2191 0EB6                             u3311 0778  
                           u2600 087F                             u4200 062F                             u4040 042B  
                           u2440 0FFE                             u2360 0F9F                             u3400 07DE  
                           u2601 087E                             u4121 052A                             u4041 042A  
                           u2441 0FFD                             u2361 0F9E                             u3401 07DD  
                           u3305 076B                             u3410 17A7                             u4122 0531  
                           u4050 0442                             u2370 0FB1                             u2290 0F72  
                           u2530 15E7                             u3330 079B                             u3411 17A6  
                           u4211 063B                             u4131 0555                             u4123 0538  
                           u4115 0506                             u4051 0441                             u2371 0FB0  
                           u2291 0F71                             u2531 15E6                             u2515 15D4  
                           u3331 079A                             u3500 17FC                             u3420 17B7  
                           u2620 0893                             u2540 0840                             u4300 06A7  
                           u4212 0642                             u4132 055C                             u4060 0447  
                           u2380 0FC0                             u3501 17FB                             u3421 17B6  
                           u2621 0892                             u2605 087B                             u2541 083F  
                           u4301 06A6                             u4213 0649                             u4205 062A  
                           u4133 0563                             u4061 0446                             u2285 0F67  
                           u2525 15DB                             u3325 078D                             u3430 17BC  
                           u2630 0898                             u2550 084B                             u2710 1737  
                           u4310 06B9                             u2390 0FCF                             u3350 07AB  
                           u3270 0736                             u3431 17BB                             u2631 0897  
                           u2615 0887                             u2551 084A                             u2711 1736  
                           u4311 06B8                             u4151 0589                             u4071 0494  
                           u2391 0FCE                             u3351 07AA                             u3271 0735  
                           u3440 17C7                             u2560 085C                             u2720 173C  
                           u2640 16F2                             u4320 06C8                             u4240 066D  
                           u4152 0590                             u4072 049B                             u2800 08AD  
                           u3360 07B1                             u3280 073A                             u4400 0AD8  
                           u3441 17C6                             u2561 085B                             u2721 173B  
                           u2705 172B                             u2641 16F1                             u4241 066C  
                           u4225 064B                             u4161 05B4                             u4153 0597  
                           u4145 0565                             u4081 04B0                             u4073 04A2  
                           u2385 0FBB                             u2801 08AC                             u3361 07B0  
                           u3345 07A0                             u3281 0739                             u4401 0AD7  
                           u3450 17CE                             u2650 16FD                             u2730 0930  
                           u4330 06E5                             u4162 05BB                             u4082 04B7  
                           u2810 08C4                             u3370 07B5                             u3290 075A  
                           u4410 0AF4                             u3451 17CD                             u2651 16FC  
                           u2731 092F                             u4331 06E4                             u4235 0662  
                           u4171 05DF                             u4163 05C2                             u4091 04DA  
                           u4083 04BE                             u3371 07B4                             u3291 0759  
                           u4411 0AF3                             u3460 17D4                             u2580 086E  
                           u2660 1708                             u2740 094C                             u4340 06FF  
                           u4260 0681                             u4180 0607                             u4172 05E6  
                           u4092 04E1                             u2820 08D8                             u3380 07CA  
                           u4500 0054                             u4420 0B3A                             u3461 17D3  
                           u2581 086D                             u2661 1707                             u2741 094B  
                           u4341 06FE                             u4325 06C3                             u4261 0680  
                           u4173 05ED                             u4093 04E8                             u2821 08D7  
                           u4501 0053                             u4421 0B39                             u3470 17DF  
                           u2750 0958                             u4350 071B                             u4270 0686  
                           u2830 08DF                             u3390 07DA                             u4510 01F6  
                           u4430 0B78                             u3471 17DE                             u2575 0860  
                           u2751 0957                             u4351 071A                             u4335 06E1  
                           u4271 0685                             u4255 0670                             u4191 0613  
                           u2831 08DE                             u2815 08BF                             u3391 07D9  
                           u4511 01F5                             u4431 0B77                             u4360 175E  
                           u3480 17EF                             u2680 171A                             u4280 069A  
                           u4192 061A                             u4520 021A                             u4440 0BB1  
                           u4600 0CDF                             u4361 175D                             u3481 17EE  
                           u2681 1719                             u2761 0967                             u4345 06FB  
                           u4281 0699                             u4193 0621                             u4185 0602  
                           u3385 07C5                             u4521 0219                             u4441 0BB0  
                           u4601 0CDE                             u4370 178C                             u3490 17F4  
                           u2690 1724                             u2770 0980                             u2762 0968  
                           u4290 06A1                             u2850 08F1                             u4530 022C  
                           u4450 0BBF                             u4610 0CEA                             u4371 178B  
                           u3491 17F3                             u2595 086F                             u2691 1723  
                           u2675 170C                             u2771 097F                             u2763 096D  
                           u4291 06A0                             u2851 08F0                             u4531 022B  
                           u4451 0BBE                             u4611 0CE9                             _PEIE 005E  
                           u2764 096E                             u2860 08F8                             u4540 0261  
                           u4380 0ABB                             u4460 0BC9                             u4700 0D87  
                           u4620 0D0A                             u2781 098F                             u2765 0973  
                           u2861 08F7                             u2845 08E1                             u4541 0260  
                           u4381 0ABA                             u4461 0BC8                             u4701 0D86  
                           u4621 0D09                             u3910 1569                             u2790 09BA  
                           u2782 0990                             u2766 0974                             u1990 0DB5  
                           u4550 027F                             u4390 0AC9                             u4470 0BEA  
                           u4630 0D10                             u3911 1565                             u2695 1720  
                           u2791 09B9                             u2783 0995                             u1991 0DB4  
                           u4551 027E                             u4535 0228                             u4391 0AC8  
                           u4471 0BE9                             u4631 0D0F                             u2784 0996  
                           u2880 0909                             u4560 02F9                             u4480 0C30  
                           u4640 0D15                             u2785 099B                             u2881 0908  
                           u4561 02F8                             u4545 025D                             u4481 0C2F  
                           u4641 0D14                             u3930 1643                             u2786 099C  
                           u2890 090E                             u4570 0317                             u4490 0C6E  
                           u4650 0D20                             u3931 1642                             u2795 09B6  
                           u2891 090D                             u2875 08FB                             u4571 0316  
                           u4491 0C6D                             u4651 0D1F                             u3924 156C  
                           u3940 15FC                             u4580 03AB                             u4660 0D26  
                           u3941 15FB                             u4581 03AA                             u4717 010D  
                           u4661 0D25                             u4590 03B0                             u4670 0D5D  
                           u4807 1693                             u4727 03D6                             u4591 03AF  
                           u4671 0D5C                             u3960 1610                             u4680 0D63  
                           u4817 1571                             u4737 1794                             u3961 160F  
                           u4681 0D62                             u3970 169D                             u4690 0D7C  
                           u4827 157B                             u4747 1531                             u3955 1603  
                           u3971 169C                             u4691 0D7B                             u3980 16C1  
                           u4757 1648                             u3981 16C0                             u3990 03F6  
                           u4767 1657                             u3991 03F5                             u4777 1665  
                           u4787 167B                             u4797 1687                             _main 0C9E  
                           btemp 007E                             start 000C                   clcd_write@byte 0075  
                 clcd_write@mode 0072          __end_of_power_on_screen 17A1        ??_washing_program_display 0022  
                          ??_isr 0070                    ___fltol@sign1 0048                  __end_of___fladd 1000  
                          ?_main 0070                  __end_of___awdiv 08A2                            STR_10 110E  
                          STR_11 10F1                            STR_20 1011                            STR_12 10B3  
                          STR_21 1077                            STR_13 1172                            STR_30 1117  
                          STR_22 10A8                            STR_14 1177                            STR_23 10C9  
                          STR_31 1084                            STR_15 113C                            STR_40 114A  
                          STR_32 1127                            STR_24 109C                            STR_16 1168  
                          STR_25 1011                            STR_41 1031                            STR_33 1000  
                          STR_17 117B                            STR_34 116D                            STR_18 104F  
                          STR_42 1040                            STR_26 1021                            STR_35 1156  
                          STR_19 1105                            STR_43 1090                            STR_27 105D  
                          STR_36 1150                            STR_28 1135                            STR_44 106A  
                __end_of___awmod 1746                            STR_45 1084                            STR_37 1156  
                          STR_29 112E                            STR_46 1127                            STR_38 1150  
                          STR_39 1150                            STR_47 1000                  __end_of___flmul 072E  
                __end_of___flsub 15C7                  __end_of___fltol 091A                  ___awdiv@divisor 0072  
                          i1l295 0834                     ?_init_config 0070                  ___awdiv@counter 0076  
                          _PORTB 0006                            _PORTD 0008                            _TRISB 0086  
                          _TRISD 0088                     ?_init_timer2 0070             __end_of_clear_screen 1535  
                   main@wait_136 005D            run_program@total_time 0062                            pclath 000A  
                          status 0003                            wtemp0 007E                  __initialization 000F  
                   __end_of_main 0DA8                           ??_main 007A                   run_program@key 005A  
__end_of_washing_program_display 0BA8                 ___awdiv@dividend 0074                           i1l3080 0801  
                         i1l3090 0824                           i1l3082 0807                           i1l3092 0829  
                         i1l3084 0818                           i1l3094 082E                           i1l3086 081A  
                         i1l3096 0830                           i1l3088 0821                           i1l3098 0832  
                         u390_20 082E                           u390_21 082D                           u386_20 0807  
                         u386_21 0806                           u387_20 0818                           u387_21 0817  
                         u388_20 0821                           u388_21 0820                           u389_20 0829  
                         u389_21 0828                           _TMR2IE 0461                           _TMR2IF 0061  
                         _TMR2ON 0092                           _TRISC1 0439                           _TRISC2 043A  
                         _TRISE1 0449                           _TRISE2 044A                 __end_of___xxtofl 07E8  
    __end_of_init_digital_keypad 1510                           ___flge 091A          _init_display_controller 1644  
                      ??___fladd 0020                           ___wmul 15C7                        ??___awdiv 0076  
               ?_power_on_screen 0070                        ??___awmod 0076                        ??___flmul 002E  
                      ??___flsub 007A                        ??___fltol 0044      __end_of_water_level_display 0C9E  
               ___awdiv@quotient 0078                  ___awmod@divisor 0072                  ___awmod@counter 0076  
    read_digital_keypad@prev_key 0068                 __end_of_set_time 0AB2                           saved_w 007E  
                     ___flge@ff1 0048                       ___flge@ff2 004C                     ___xxtofl@arg 0022  
                   ___xxtofl@exp 0021                     ___xxtofl@val 0072          __end_of__initialization 0040  
                     ___fltol@f1 0040                   __pcstackCOMMON 0070                     __pidataBANK0 07FD  
                   __pidataBANK1 1581                     ?_run_program 0070                       __pbssBANK0 0060  
                     __pbssBANK1 00C2                  run_program@time 0060        ??_init_display_controller 0076  
                     _clcd_print 1615                       _clcd_putch 07E8                       _clcd_write 1561  
              __end_of__Umul8_16 1615                       __pmaintext 0C9E                     _clear_screen 1528  
                        ?___flge 0048                          ?___wmul 0072                       __pintentry 0004  
                        _T2CKPS0 0090                          _T2CKPS1 0091      __end_of_read_digital_keypad 1800  
                      ?___xxtofl 0072                       __stringtab 117F                        ?_set_time 0070  
                        ___fladd 0DA8                          ___awdiv 083B                          ___awmod 16ED  
                        ___flmul 03E9                          ___flsub 15A3                          ___fltol 08A2  
                        __ptext1 0BA8                          __ptext2 0AB2                          __ptext3 09BE  
                        __ptext4 0044                          __ptext5 1697                          __ptext6 072E  
                        __ptext7 15C7                          __ptext8 08A2                          __ptext9 15A3  
__end_of_init_display_controller 1697                __end_of_init_clcd 151B                       ??___xxtofl 0076  
               ___awmod@dividend 0074                          main@key 005F             end_of_initialization 0040  
                 _operation_mode 006E                      ?_clcd_print 0076                      ?_clcd_putch 0020  
                    ?_clcd_write 0072         ?_washing_program_display 0070                       _reset_mode 006D  
                     ??_set_time 0072                     __pstringtext 1000                       _rinse_time 0066  
                    ___fladd@grs 002B       washing_program_display@key 0024                       _program_no 007B  
                  ___xxtofl@sign 0020                    clcd_print@str 0076                      ___flmul@grs 0035  
                 __end_of___flge 09BE                   __end_of___wmul 15EC              start_initialization 000F  
                    __end_of_isr 083B                         ??___flge 0050                         ??___wmul 0076  
                     init_fetch0 1535                        __Umul8_16 15EC                      __pdataBANK0 006C  
                    __pdataBANK1 00A0                    ??_init_config 0078                        ___fladd@a 0076  
                      ___fladd@b 0072                    ??_init_timer2 0072                        ___flmul@a 002A  
                      ___flmul@b 0026                      __pbssCOMMON 007A                        ___flsub@a 0040  
                      ___flsub@b 0044                        ___latbits 0002                    __pcstackBANK0 0020  
           power_on_screen@i_144 0026                         ?___fladd 0072                         ?___awdiv 0072  
                       ?___awmod 0072                         ?___flmul 0026                         ?___flsub 0040  
                       ?___fltol 0040                       ?__Umul8_16 0072                        __pstrings 117F  
                      _init_clcd 1510              __end_of_init_config 1561                ??_power_on_screen 0022  
            __end_of_init_timer2 1528         ?_init_display_controller 0070                interrupt_function 0004  
                 ___wmul@product 0076                     ??_clcd_print 0079                     ??_clcd_putch 007A  
                   ??_clcd_write 0073                        _wash_time 0064                        _spin_time 00C4  
                    __stringbase 1191                ___wmul@multiplier 0072               __end_of_clcd_print 1644  
             __end_of_clcd_putch 07FD               __end_of_clcd_write 1581                       ?_init_clcd 0070  
            _init_digital_keypad 150A              _water_level_display 0BA8                      ??__Umul8_16 0074  
           ?_init_digital_keypad 0070               __end_of__stringtab 1191                      _init_config 1548  
           ?_water_level_display 0070                         ___xxtofl 072E                      _init_timer2 151B  
                  ??_run_program 0054                         __ptext10 0DA8                         __ptext11 03E9  
                       __ptext20 1615                         __ptext12 15EC                         __ptext21 1548  
                       __ptext13 091A                         __ptext22 151B                         __ptext14 16ED  
                       __ptext23 150A                         __ptext15 083B                         __ptext24 1510  
                       __ptext16 17A1                         __ptext25 1644                         __ptext17 1746  
                       __ptext26 1561                         __ptext18 1528                         __ptext27 0801  
                       __ptext19 07E8          read_digital_keypad@mode 0073          read_digital_keypad@once 006C  
                  ?_clear_screen 0070                         _set_time 09BE            ??_init_digital_keypad 0072  
              _door_status_check 1697                         main@wait 005B               ?_door_status_check 0070  
          ??_water_level_display 0022                         isr@count 00C2              ??_door_status_check 0079  
                       init_ram0 1539                      ??_init_clcd 0078               _water_level_option 00B8  
                       intlevel1 0000              __end_of_run_program 03E9                        stringcode 1189  
                 ??_clear_screen 0076        __end_of_door_status_check 16ED              _read_digital_keypad 17A1  
              _water_level_index 007A          _washing_program_display 0AB2           __Umul8_16@multiplicand 0072  
                _power_on_screen 1746                     _washing_prog 00A0                         stringtab 117F  
                  ___fladd@signs 0028             ?_read_digital_keypad 0070                 power_on_screen@i 0025  
                   ___fladd@aexp 0029                     ___fladd@bexp 002A             __Umul8_16@multiplier 0024  
              __Umul8_16@product 0020  
